(lp1
(lp2
(I1
S'Poongko'
(lp3
S'Seth'
p4
aS'El Fuerte'
p5
aI128
tp6
a(I2
S'Sako'
(lp7
S'Elena'
p8
aS'Evil Ryu'
p9
aS'Gen'
p10
aI64
tp11
a(I3
S'Infiltration'
(lp12
S'Decapre'
p13
aS'Akuma'
p14
aS'Hakan'
p15
aI32
tp16
a(I4
S'JehoSan'
(lp17
S'Cammy'
p18
aS'Decapre'
p19
aS'Guile'
p20
aI16
tp21
a(I5
S'Tonpy'
(lp22
S'C.Viper'
p23
aI8
tp24
a(I5
S'Valmaster'
(lp25
S'Chun-Li'
p26
aI8
tp27
a(I7
S'Dieminion'
(lp28
S'Guile'
p29
aI4
tp30
a(I7
S'Xiao Hai'
(lp31
S'Cammy'
p32
aI4
tp33
a(I9
S'ImStillDaDaddy'
(lp34
S'Guile'
p35
aI2
tp36
a(I9
S'Ninja Shakz'
(lp37
S'Abel'
p38
aI2
tp39
a(I9
S'Prodigal Son'
(lp40
S'Sagat'
p41
aS'Ryu'
p42
aS'Abel'
p43
aI2
tp44
a(I9
S'Problem X'
(lp45
S'C.Viper'
p46
aI2
tp47
a(I13
S'F-Word'
(lp48
S'Ibuki'
p49
aI1
tp50
a(I13
S'Pro Fluke'
(lp51
S'El Fuerte'
p52
aI1
tp53
a(I13
S'Renegad'
(lp54
S'Poison'
p55
aI1
tp56
a(I13
S'Phenom'
(lp57
S'M.Bison'
p58
aI1
tp59
aa(lp60
(I1
S'Dark Jiewa'
(lp61
S'Ken'
p62
aI128
tp63
a(I2
S'Humanbomb'
(lp64
S'Sakura'
p65
aS'Poison'
p66
aS'Ryu'
p67
aI64
tp68
a(I3
S'Chuan'
(lp69
S'Guile'
p70
aS'Fei Long'
p71
aS'Zangief'
p72
aS'Yun'
p73
aI32
tp74
a(I4
S'XiaoLong'
(lp75
S'M.Bison'
p76
aI16
tp77
a(I5
S'Saunic'
(lp78
S'Ibuki'
p79
aS'Dhalsim'
p80
aI8
tp81
a(I5
S'Revenger32'
(lp82
S'Abel'
p83
aI8
tp84
a(I7
S'CodyNp'
(lp85
S'Decapre'
p86
aS'Poison'
p87
aS'Ryu'
p88
aI4
tp89
a(I7
S'Dian'
(lp90
S'Guile'
p91
aS'M.Bison'
p92
aI4
tp93
a(I9
S'Susubabi'
(lp94
S'Sagat'
p95
aI2
tp96
a(I9
S'AHo'
(lp97
S'Rolento'
p98
aI2
tp99
a(I9
S'Shamwow'
(lp100
S'Rose'
p101
aI2
tp102
a(I9
S'Cameraman'
(lp103
S'T.Hawk'
p104
aI2
tp105
a(I13
S'Nekopunch'
(lp106
S'Yun'
p107
aI1
tp108
a(I13
S'Kenmike77'
(lp109
S'Ken'
p110
aI1
tp111
a(I13
S'Ush'
(lp112
S'Poison'
p113
aI1
tp114
a(I13
S'Drapoyo'
(lp115
S'Guile'
p116
aI1
tp117
aa(lp118
(I1
S'Infiltration'
(lp119
S'Decapre'
p120
aS'Akuma'
p121
aI128
tp122
a(I2
S'Poongko'
(lp123
S'Seth'
p124
aS'El Fuerte'
p125
aI64
tp126
a(I3
S'Shiro'
(lp127
S'Abel'
p128
aI32
tp129
a(I4
S'Inco'
(lp130
S'Rufus'
p131
aI16
tp132
a(I5
S'Nishikin'
(lp133
S'Blanka'
p134
aI8
tp135
a(I5
S'Gattikun'
(lp136
S'Sagat'
p137
aI8
tp138
a(I7
S'Kindo'
(lp139
S'Guy'
p140
aI4
tp141
a(I7
S'Mizoteru'
(lp142
S'Blanka'
p143
aI4
tp144
a(I9
S'Itazan'
(lp145
S'Zangief'
p146
aI2
tp147
a(I9
S'Chiaki'
(lp148
S'Chun-Li'
p149
aI2
tp150
a(I9
S'Anton'
(lp151
S'Gouken'
p152
aI2
tp153
a(I9
S'Misse'
(lp154
S'Makoto'
p155
aI2
tp156
a(I13
S'Akimo'
(lp157
S'Elena'
p158
aI1
tp159
a(I13
S'Hikarin'
(lp160
S'Oni'
p161
aI1
tp162
a(I13
S'FGC/pepeday'
(lp163
S'El Fuerte'
p164
aI1
tp165
a(I13
S'Kawaguchi'
(lp166
S'Rose'
p167
aI1
tp168
aa(lp169
(I1
S'Xian'
(lp170
S'Gen'
p171
aS'Elena'
p172
aI256
tp173
a(I2
S'Momochi'
(lp174
S'Ken'
p175
aS'Elena'
p176
aI128
tp177
a(I3
S'Fuudo'
(lp178
S'Fei Long'
p179
aI64
tp180
a(I4
S'Kazunoko'
(lp181
S'Yun'
p182
aI32
tp183
a(I5
S'Dieminion'
(lp184
S'Guile'
p185
aI16
tp186
a(I5
S'Sabin'
(lp187
S'Dhalsim'
p188
aI16
tp189
a(I7
S'Snake Eyez'
(lp190
S'Zangief'
p191
aS'Evil Ryu'
p192
aI8
tp193
a(I7
S'Hiro'
(lp194
S'M.Bison'
p195
aI8
tp196
a(I9
S'Ricky Ortiz'
(lp197
S'Rufus'
p198
aS'Rolento'
p199
aI4
tp200
a(I9
S'Bonchan'
(lp201
S'Sagat'
p202
aI4
tp203
a(I9
S'Tampa Bison'
(lp204
S'M.Bison'
p205
aI4
tp206
a(I9
S'Filipinoman'
(lp207
S'Rose'
p208
aI4
tp209
a(I13
S'Chris Tatarian'
(lp210
S'Ken'
p211
aI2
tp212
a(I13
S'NuckleDu'
(lp213
S'Guile'
p214
aI2
tp215
a(I13
S'Mago'
(lp216
S'Yang'
p217
aI2
tp218
a(I13
S'Daigo'
(lp219
S'Evil Ryu'
p220
aI2
tp221
aa(lp222
(I1
S'Daigo Umehara'
(lp223
S'Evil Ryu'
p224
aI256
tp225
a(I2
S'Gamerbee'
(lp226
S'Adon'
p227
aS'Elena'
p228
aI128
tp229
a(I3
S'NuckleDu'
(lp230
S'Guile'
p231
aS'Decapre'
p232
aS'Ibuki'
p233
aI64
tp234
a(I4
S'Bonchan'
(lp235
S'Sagat'
p236
aI32
tp237
a(I5
S'Justin Wong'
(lp238
S'Rufus'
p239
aS'Rose'
p240
aI16
tp241
a(I5
S'Smug'
(lp242
S'Dudley'
p243
aI16
tp244
a(I7
S'Infiltration'
(lp245
S'Declare'
p246
aS'Akuma'
p247
aS'Chun-Li'
p248
aI8
tp249
a(I7
S'Kazunoko'
(lp250
S'Yun'
p251
aI8
tp252
a(I9
S'Momochi'
(lp253
S'Ken'
p254
aS'Evil Ryu'
p255
aI4
tp256
a(I9
S'Snake Eyez'
(lp257
S'Zangief'
p258
aI4
tp259
a(I9
S'801 Strider'
(lp260
S'Abel'
p261
aI4
tp262
a(I9
S'Poongko'
(lp263
S'Seth'
p264
aI4
tp265
a(I13
S'SD Pnoy'
(lp266
S'M.Bison'
p267
aI2
tp268
a(I13
S'Ricky Ortiz'
(lp269
S'Rufus'
p270
aS'Chun-Li'
p271
aI2
tp272
a(I13
S'EX Pugera'
(lp273
S'Ibuki'
p274
aI2
tp275
a(I13
S'Marq Teddy'
(lp276
S'Guy'
p277
aI2
tp278
aa(lp279
(I1
S'Mago'
(lp280
S'Yang'
p281
aI256
tp282
a(I2
S'Tokido'
(lp283
S'Akuma'
p284
aI128
tp285
a(I3
S'Luffy'
(lp286
S'Rose'
p287
aI64
tp288
a(I4
S'Ryan Hart'
(lp289
S'Decapre'
p290
aS'Abel'
p291
aS'Rolento'
p292
aS'Sagat'
p293
aI32
tp294
a(I5
S'Pro Fluke'
(lp295
S'El Fuerte'
p296
aI16
tp297
a(I5
S'Xian'
(lp298
S'Gen'
p299
aS'Elena'
p300
aI16
tp301
a(I7
S'Shoryusengan'
(lp302
S'Ken'
p303
aI8
tp304
a(I7
S'ImStillDaDaddy'
(lp305
S'Guile'
p306
aS'Decapre'
p307
aI8
tp308
a(I9
S'Hurricane237'
(lp309
S'Decapre'
p310
aI4
tp311
a(I9
S'Andreas'
(lp312
S'Rufus'
p313
aI4
tp314
a(I9
S'Milligano'
(lp315
S'M.Bison'
p316
aI4
tp317
a(I9
S'Problem X'
(lp318
S'C.Viper'
p319
aI4
tp320
a(I13
S'Saunic'
(lp321
S'Ibuki'
p322
aI2
tp323
a(I13
S'OverMostHeads'
(lp324
S'Oni'
p325
aI2
tp326
a(I13
S'Damascus'
(lp327
S'Ibuki'
p328
aI2
tp329
a(I13
S'Afii'
(lp330
S'Poison'
p331
aI2
tp332
aa(lp333
(I1
S'Justin Wong'
(lp334
S'Rufus'
p335
aI128
tp336
a(I2
S'KojiKOG'
(lp337
S'T.Hawk'
p338
aI64
tp339
a(I3
S'LPN'
(lp340
S'Rolento'
p341
aS'Cammy'
p342
aS'Ken'
p343
aS'Abel'
p344
aI32
tp345
a(I4
S'Sabin (Arturo Sanchez)'
(lp346
S'Dhalsim'
p347
aS'Rose'
p348
aI16
tp349
a(I5
S'NYChrisG'
(lp350
S'Sakura'
p351
aI8
tp352
a(I5
S'Native Impact'
(lp353
S'T.Hawk'
p354
aI8
tp355
a(I7
S'Fawwaz'
(lp356
S'C.Viper'
p357
aI4
tp358
a(I7
S'Air'
(lp359
S'Poison'
p360
aS'Ryu'
p361
aI4
tp362
a(I9
S'Nando Tovar'
(lp363
S'El Fuerte'
p364
aI2
tp365
a(I9
S'Ricky Ortiz'
(lp366
S'Rufus'
p367
aS'Rolento'
p368
aI2
tp369
a(I9
S'PR Balrog'
(lp370
S'Balrog'
p371
aI2
tp372
a(I9
S'Julio'
(lp373
S'Yun'
p374
aI2
tp375
a(I13
S'Dickson'
(lp376
S'Decapre'
p377
aI1
tp378
a(I13
S'Brentt'
(lp379
S'Rufus'
p380
aI1
tp381
a(I13
S'Hoodaman'
(lp382
S'E.Honda'
p383
aI1
tp384
a(I13
S'Jayce the Ace'
(lp385
S'Decapre'
p386
aS'C.Viper'
p387
aI1
tp388
aa(lp389
(I1
S'Infiltration'
(lp390
S'Decapre'
p391
aS'Akuma'
p392
aS'Gouken'
p393
aS'Abel'
p394
aI128
tp395
a(I2
S'Bonchan'
(lp396
S'Sagat'
p397
aS'Yun'
p398
aI64
tp399
a(I3
S'Poongko'
(lp400
S'Seth'
p401
aI32
tp402
a(I4
S'Kazunoko'
(lp403
S'Yun'
p404
aI16
tp405
a(I5
S'Humanbomb'
(lp406
S'Sakura'
p407
aI8
tp408
a(I5
S'Tokido'
(lp409
S'Akuma'
p410
aI8
tp411
a(I7
S'Itabashi Zangief'
(lp412
S'Zangief'
p413
aI4
tp414
a(I7
S'Eita'
(lp415
S'Akuma'
p416
aI4
tp417
a(I9
S'Dark Jiewa'
(lp418
S'Ken'
p419
aI2
tp420
a(I9
S'DB Koopa'
(lp421
S'Yun'
p422
aI2
tp423
a(I9
S'KOK'
(lp424
S'Sagat'
p425
aS'Evil Ryu'
p426
aI2
tp427
a(I9
S'Chuan'
(lp428
S'Guile'
p429
aI2
tp430
a(I13
S'FRS'
(lp431
S'Rolento'
p432
aI1
tp433
a(I13
S'Laugh'
(lp434
S'Evil Ryu'
p435
aI1
tp436
a(I13
S'Shiro'
(lp437
S'Abel'
p438
aI1
tp439
a(I13
S'Kim1234'
(lp440
S'M.Bison'
p441
aI1
tp442
aa(lp443
(I1
S'Nemo'
(lp444
S'Rolento'
p445
aS'Decapre'
p446
aI128
tp447
a(I2
S'Tonpy'
(lp448
S'c.Viper'
p449
aI64
tp450
a(I3
S'Tokido'
(lp451
S'Akuma'
p452
aI32
tp453
a(I4
S'Kazunoko'
(lp454
S'Yun'
p455
aI16
tp456
a(I5
S'Bonchan'
(lp457
S'Sagat'
p458
aI8
tp459
a(I5
S'Inco'
(lp460
S'Rufus'
p461
aI8
tp462
a(I7
S'Pepeday'
(lp463
S'El Fuerte'
p464
aI4
tp465
a(I7
S'KojiKOG'
(lp466
S'T.Hawk'
p467
aI4
tp468
a(I9
S'Misse'
(lp469
S'Makoto'
p470
aI2
tp471
a(I9
S'Kawaguchi'
(lp472
S'Rose'
p473
aI2
tp474
a(I9
S'Gachikun'
(lp475
S'Sagat'
p476
aI2
tp477
a(I9
S'Shiro'
(lp478
S'Abel'
p479
aI2
tp480
a(I13
S'Meu'
(lp481
S'Makoto'
p482
aI1
tp483
a(I13
S'Haitani'
(lp484
S'El Fuerte'
p485
aI1
tp486
a(I13
S'Eita'
(lp487
S'Akuma'
p488
aI1
tp489
a(I13
S'Taayan'
(lp490
S'El Fuerte'
p491
aI1
tp492
aa(lp493
(I1
S'Infiltration'
(lp494
S'Akuma'
p495
aS'Ryu'
p496
aS'Ken'
p497
aS'Chun-Li'
p498
aS'Elena'
p499
aS'Rolento'
p500
aI128
tp501
a(I2
S'SnakeEyez'
(lp502
S'Zangief'
p503
aI64
tp504
a(I3
S'K-Brad'
(lp505
S'Cammy'
p506
aS'Chun-Li'
p507
aI32
tp508
a(I4
S'801Strider'
(lp509
S'Abel'
p510
aI16
tp511
a(I5
S'NYChrisG'
(lp512
S'Sakura'
p513
aI8
tp514
a(I5
S'Ricki Ortiz'
(lp515
S'Rolento'
p516
aS'Rufus'
p517
aS'Chun-Li'
p518
aI8
tp519
a(I7
S'Magneto1080p'
(lp520
S'Elena'
p521
aI4
tp522
a(I7
S'Hsien Chang'
(lp523
S'Yun'
p524
aI4
tp525
a(I9
S'FourWude'
(lp526
S'Akuma'
p527
aI2
tp528
a(I9
S'Air'
(lp529
S'Poison'
p530
aI2
tp531
a(I9
S'Integra'
(lp532
S'Ken'
p533
aI2
tp534
a(I9
S'Justin Wong'
(lp535
S'Rufus'
p536
aI2
tp537
a(I13
S'Hamad'
(lp538
S'Fei Long'
p539
aI1
tp540
a(I13
S'Chaotix'
(lp541
S'Dudley'
p542
aI1
tp543
a(I13
S'NuckleDu'
(lp544
S'Guile'
p545
aS'Decapre'
p546
aI1
tp547
a(I13
S'Onisan'
(lp548
S'Abel'
p549
aI1
tp550
aa(lp551
(I1
S'NuckleDu'
(lp552
S'Guile'
p553
aI128
tp554
a(I2
S'Ricki Ortiz'
(lp555
S'Rufus'
p556
aS'Rolento'
p557
aI64
tp558
a(I3
S'Justin Wong'
(lp559
S'Rufus'
p560
aS'Rose'
p561
aS'Adon'
p562
aI32
tp563
a(I4
S'Wolfkrone'
(lp564
S'C.Viper'
p565
aI16
tp566
a(I5
S'Air'
(lp567
S'Poison'
p568
aI8
tp569
a(I5
S'Sabin'
(lp570
S'Dhalsim'
p571
aI8
tp572
a(I7
S'K-Brad'
(lp573
S'Cammy'
p574
aI4
tp575
a(I7
S'Khangaroo'
(lp576
S'Dudley'
p577
aI4
tp578
a(I9
S'Joel'
(lp579
S'Ryu'
p580
aI2
tp581
a(I9
S'Onisan'
(lp582
S'Abel'
p583
aI2
tp584
a(I9
S'KDZ'
(lp585
S'Yun'
p586
aS'Abel'
p587
aI2
tp588
a(I9
S'Alucard'
(lp589
S'Hugo'
p590
aS'Evil Ryu'
p591
aI2
tp592
a(I13
S'Nice1'
(lp593
S'Guy'
p594
aI1
tp595
a(I13
S'El Chakotay'
(lp596
S'El Fuerte'
p597
aI1
tp598
a(I13
S'German Luger'
(lp599
S'Vega'
p600
aI1
tp601
a(I13
S'Jebailey'
(lp602
S'Balrog'
p603
aS'Ken'
p604
aI1
tp605
aa(lp606
(I1
S'Daigo Umehara'
(lp607
S'Evil Ryu'
p608
aS'Ryu'
p609
aI256
tp610
a(I2
S'Momochi'
(lp611
S'Ken'
p612
aS'Cody'
p613
aI128
tp614
a(I3
S'Infiltration'
(lp615
S'Decapre'
p616
aI64
tp617
a(I4
S'Tokido'
(lp618
S'Akuma'
p619
aI32
tp620
a(I5
S'GamerBee'
(lp621
S'Adon'
p622
aS'Elena'
p623
aI16
tp624
a(I5
S'Poongko'
(lp625
S'Seth'
p626
aS'El Fuerte'
p627
aI16
tp628
a(I7
S'Bonchan'
(lp629
S'Sagat'
p630
aI8
tp631
a(I7
S'Fuudo'
(lp632
S'Fei Long'
p633
aS'Sagat'
p634
aI8
tp635
a(I9
S'Eita'
(lp636
S'Akuma'
p637
aS'Evil Ryu'
p638
aI4
tp639
a(I9
S'Gagapa'
(lp640
S'M.Bison'
p641
aI4
tp642
a(I9
S'Xian'
(lp643
S'Gen'
p644
aS'Elena'
p645
aI4
tp646
a(I9
S'Luffy'
(lp647
S'Rose'
p648
aI4
tp649
a(I13
S'Ryan Hart'
(lp650
S'Sagat'
p651
aI2
tp652
a(I13
S'Mago'
(lp653
S'Yang'
p654
aS'Fei Long'
p655
aI2
tp656
a(I13
S'Kazunoko'
(lp657
S'Yun'
p658
aI2
tp659
a(I13
S'Valmaster'
(lp660
S'Chun-Li'
p661
aI2
tp662
aa(lp663
(I1
S'Luffy'
(lp664
S'Rose'
p665
aI128
tp666
a(I2
S'Poongko'
(lp667
S'Seth'
p668
aI64
tp669
a(I3
S'infexious'
(lp670
S'Hugo'
p671
aI32
tp672
a(I4
S'Tokido'
(lp673
S'Akuma'
p674
aI16
tp675
a(I5
S'Dark Jiewa'
(lp676
S'Ken'
p677
aI8
tp678
a(I5
S'Valmaster'
(lp679
S'Chun-Li'
p680
aI8
tp681
a(I7
S'Demulant'
(lp682
S'Sagat'
p683
aI4
tp684
a(I7
S'Andreas'
(lp685
S'Rufus'
p686
aI4
tp687
a(I9
S'RMZ'
(lp688
S'Yun'
p689
aI2
tp690
a(I9
S'Packz'
(lp691
S'Cody'
p692
aI2
tp693
a(I9
S'Ebi'
(lp694
S'Hakan'
p695
aI2
tp696
a(I9
S'StarNab'
(lp697
S'Fei Long'
p698
aI2
tp699
a(I13
S'Sheva'
(lp700
S'Cody'
p701
aI1
tp702
a(I13
S'Pro Fluke'
(lp703
S'El Fuerte'
p704
aI1
tp705
a(I13
S'emptysys'
(lp706
S'T.Hawk'
p707
aI1
tp708
a(I13
S'Halibel'
(lp709
S'Ken'
p710
aS'Sagat'
p711
aI1
tp712
aa(lp713
(I1
S'Luffy'
(lp714
S'Rose'
p715
aI128
tp716
a(I2
S'Problem X'
(lp717
S'C.Viper'
p718
aS'Seth'
p719
aI64
tp720
a(I3
S'GamerBee'
(lp721
S'Elena'
p722
aS'Adon'
p723
aS'Yun'
p724
aI32
tp725
a(I4
S'Ryan Hart'
(lp726
S'Ryu'
p727
aS'Sagat'
p728
aI16
tp729
a(I5
S'Pro Fluke'
(lp730
S'El Fuerte'
p731
aI8
tp732
a(I5
S'MBR'
(lp733
S'Akuma'
p734
aI8
tp735
a(I7
S'ImStillDaDaddy'
(lp736
S'Guile'
p737
aS'Seth'
p738
aS'M.Bison'
p739
aI4
tp740
a(I7
S'Phenom'
(lp741
S'M.Bison'
p742
aS'Rolento'
p743
aI4
tp744
a(I9
S'Andreas'
(lp745
S'Rufus'
p746
aI2
tp747
a(I9
S'Tyrant'
(lp748
S'M.Bison'
p749
aI2
tp750
a(I9
S'Bashfest'
(lp751
S'Sagat'
p752
aI2
tp753
a(I9
S'RMZ'
(lp754
S'Yun'
p755
aS'Sagat'
p756
aI2
tp757
a(I13
S'SaltyKid'
(lp758
S'Dee Jay'
p759
aI1
tp760
a(I13
S'Duppsko'
(lp761
S'Rufus'
p762
aS'Decapre'
p763
aI1
tp764
a(I13
S'Brillz'
(lp765
S'Dee Jay'
p766
aI1
tp767
a(I13
S'King Funk'
(lp768
S'Rufus'
p769
aS'Zangief'
p770
aI1
tp771
aa(lp772
(I1
S'Mago'
(lp773
S'Yang'
p774
aS'Fei Long'
p775
aI256
tp776
a(I2
S'Tokido'
(lp777
S'Akuma'
p778
aS'Hugo'
p779
aS'Elena'
p780
aI128
tp781
a(I3
S'Xiao Hai'
(lp782
S'Evil Ryu'
p783
aS'Cammy'
p784
aS'Sagat'
p785
aI64
tp786
a(I4
S'Kazunoko'
(lp787
S'Yun'
p788
aI32
tp789
a(I5
S'Daigo Umehara'
(lp790
S'Evil Ryu'
p791
aI16
tp792
a(I5
S'Momochi'
(lp793
S'Ken'
p794
aI16
tp795
a(I7
S'Xian'
(lp796
S'Gen'
p797
aS'Poison'
p798
aI8
tp799
a(I7
S'Infiltration'
(lp800
S'Decapre'
p801
aS'Chun-Li'
p802
aS'Hugo'
p803
aS'Rolento'
p804
aI8
tp805
a(I9
S'GamberBee'
(lp806
S'Adon'
p807
aS'Elena'
p808
aS'Yun'
p809
aI4
tp810
a(I9
S'RB'
(lp811
S'Rolento'
p812
aS'Guy'
p813
aS'Hugo'
p814
aI4
tp815
a(I9
S'Fuudo'
(lp816
S'Fei Long'
p817
aI4
tp818
a(I9
S'Itabashi Zangief'
(lp819
S'Zangief'
p820
aI4
tp821
a(I13
S'Kim1234'
(lp822
S'M.Bison'
p823
aI2
tp824
a(I13
S'QiuQiuKOF'
(lp825
S'Gen'
p826
aI2
tp827
a(I13
S'HumanBomb'
(lp828
S'Sakura'
p829
aI2
tp830
a(I13
S'Shiro'
(lp831
S'Abel'
p832
aI2
tp833
aa(lp834
(I1
S'Kazunoko'
(lp835
S'Yun'
p836
aI256
tp837
a(I2
S'801 Strider'
(lp838
S'Abel'
p839
aI128
tp840
a(I3
S'PR Balrog'
(lp841
S'Balrog'
p842
aI64
tp843
a(I4
S'Smug'
(lp844
S'Dudley'
p845
aI32
tp846
a(I5
S'Dieminion'
(lp847
S'Guile'
p848
aS'Juri'
p849
aI16
tp850
a(I5
S'Mago'
(lp851
S'Yang'
p852
aI16
tp853
a(I7
S'Bonchan'
(lp854
S'Sagat'
p855
aI8
tp856
a(I7
S'Xiao Hai'
(lp857
S'Evil Ryu'
p858
aS'Cammy'
p859
aI8
tp860
a(I9
S'Snake Eyez'
(lp861
S'Zangief'
p862
aI4
tp863
a(I9
S'Tokido'
(lp864
S'Akuma'
p865
aI4
tp866
a(I9
S'NuckleDu'
(lp867
S'Guile'
p868
aS'Decapre'
p869
aI4
tp870
a(I9
S'Infiltration'
(lp871
S'Akuma'
p872
aS'Gouken'
p873
aI4
tp874
a(I13
S'Dakou'
(lp875
S'Evil Ryu'
p876
aS'Yun'
p877
aI2
tp878
a(I13
S'Fuudo'
(lp879
S'Fei Long'
p880
aI2
tp881
a(I13
S'Ricki Ortiz'
(lp882
S'Poison'
p883
aS'Rufus'
p884
aI2
tp885
a(I13
S'Alucard'
(lp886
S'Hugo'
p887
aS'Sagat'
p888
aI2
tp889
aa(lp890
(I1
S'Momochi'
(lp891
S'Ken'
p892
aS'Evil Ryu'
p893
aS'Elena'
p894
aI1024
tp895
a(I2
S'GamerBee'
(lp896
S'Elena'
p897
aS'Adon'
p898
aI512
tp899
a(I3
S'Infiltration'
(lp900
S'Evil Ryu'
p901
aS'Chun-Li'
p902
aS'Abel'
p903
aS'Decapre'
p904
aS'Elena'
p905
aS'Juri'
p906
aI256
tp907
a(I4
S'Nemo'
(lp908
S'Rolento'
p909
aI128
tp910
a(I5
S'AiAi'
(lp911
S'Juri'
p912
aI64
tp913
a(I5
S'Tokido'
(lp914
S'Akuma'
p915
aI64
tp916
a(I7
S'PR Balrog'
(lp917
S'Balrog'
p918
aI32
tp919
a(I7
S'NuckleDu'
(lp920
S'Decapre'
p921
aS'Guile'
p922
aI32
tp923
a(I9
S'Kazunoko'
(lp924
S'Yun'
p925
aI16
tp926
a(I9
S'Santarouman'
(lp927
S'Sagat'
p928
aI16
tp929
a(I9
S'Daigo Umehara'
(lp930
S'Evil Ryu'
p931
aI16
tp932
a(I9
S'Filipinoman'
(lp933
S'Rose'
p934
aS'Poison'
p935
aI16
tp936
a(I13
S'Xiao Hai'
(lp937
S'Cammy'
p938
aS'Evil Ryu'
p939
aS'Yun'
p940
aI8
tp941
a(I13
S'Kindevu'
(lp942
S'Elena'
p943
aI8
tp944
a(I13
S'Snake Eyez'
(lp945
S'Zangief'
p946
aI8
tp947
a(I13
S'Latif'
(lp948
S'C.Viper'
p949
aI8
tp950
aa(lp951
(I1
S'Xian'
(lp952
S'Gen'
p953
aI128
tp954
a(I2
S'Xiao Hai'
(lp955
S'Evil Ryu'
p956
aS'Cammy'
p957
aI64
tp958
a(I3
S'Tokido'
(lp959
S'Akuma'
p960
aI32
tp961
a(I4
S'HumanBomb'
(lp962
S'Sakura'
p963
aI16
tp964
a(I5
S'Dakou'
(lp965
S'Evil Ryu'
p966
aI8
tp967
a(I5
S'QQEL'
(lp968
S'El Fuerte'
p969
aI8
tp970
a(I7
S'KOK'
(lp971
S'Rufus'
p972
aI4
tp973
a(I7
S'Fuudo'
(lp974
S'Fei Long'
p975
aI4
tp976
a(I9
S'God of Sky'
(lp977
S'Vega'
p978
aI2
tp979
a(I9
S'Chengfei'
(lp980
S'Decapre'
p981
aI2
tp982
a(I9
S'AbAb'
(lp983
S'Abel'
p984
aI2
tp985
a(I9
S'Xiaolong'
(lp986
S'M.Bison'
p987
aI2
tp988
a(I13
S'HurtchVR'
(lp989
S'Evil Ryu'
p990
aI1
tp991
a(I13
S'Abang'
(lp992
S'Gouken'
p993
aI1
tp994
a(I13
S'GZ-Ben'
(lp995
S'Fei Long'
p996
aI1
tp997
a(I13
S'Dark Jiewa'
(lp998
S'Ken'
p999
aI1
tp1000
aa(lp1001
(I1
S'Luffy'
(lp1002
S'Rose'
p1003
aI128
tp1004
a(I2
S'Problem X'
(lp1005
S'C.Viper'
p1006
aS'Seth'
p1007
aI64
tp1008
a(I3
S'Infexious'
(lp1009
S'Hugo'
p1010
aI32
tp1011
a(I4
S'Tyrant'
(lp1012
S'M.Bison'
p1013
aI16
tp1014
a(I5
S'Packz'
(lp1015
S'Cody'
p1016
aI8
tp1017
a(I5
S'F-Word'
(lp1018
S'Ibuki'
p1019
aI8
tp1020
a(I7
S'Solidjin'
(lp1021
S'Vega'
p1022
aI4
tp1023
a(I7
S'Hurricane237'
(lp1024
S'Decapre'
p1025
aI4
tp1026
a(I9
S'GuN SLinGa'
(lp1027
S'Guy'
p1028
aI2
tp1029
a(I9
S'ImStillDaDaddy'
(lp1030
S'Guile'
p1031
aS'Decapre'
p1032
aI2
tp1033
a(I9
S'Afii'
(lp1034
S'Poison'
p1035
aI2
tp1036
a(I9
S'Pro Fluke'
(lp1037
S'El Fuerte'
p1038
aI2
tp1039
a(I13
S'Isam'
(lp1040
S'Abel'
p1041
aI1
tp1042
a(I13
S'Brian'
(lp1043
S'Sakura'
p1044
aS'C.Viper'
p1045
aI1
tp1046
a(I13
S'Fuzzy'
(lp1047
S'Cammy'
p1048
aS'Poison'
p1049
aI1
tp1050
a(I13
S'Ghost'
(lp1051
S'E.Honda'
p1052
aI1
tp1053
aa(lp1054
(I1
S'Bonchan'
(lp1055
S'Sagat'
p1056
aI128
tp1057
a(I2
S'Itabashi Zangief'
(lp1058
S'Zangief'
p1059
aI64
tp1060
a(I3
S'Gackt'
(lp1061
S'Fei Long'
p1062
aS'Sagat'
p1063
aI32
tp1064
a(I4
S'Tonpy'
(lp1065
S'C.Viper'
p1066
aI16
tp1067
a(I5
S'Leslie'
(lp1068
S'Sagat'
p1069
aI8
tp1070
a(I5
S'Koji'
(lp1071
S'Akuma'
p1072
aS'Yun'
p1073
aI8
tp1074
a(I7
S'Gonzales'
(lp1075
S'Seth'
p1076
aI4
tp1077
a(I7
S'Chuan'
(lp1078
S'Guile'
p1079
aI4
tp1080
a(I9
S'RB'
(lp1081
S'Rolento'
p1082
aS'Hugo'
p1083
aS'Guy'
p1084
aI2
tp1085
a(I9
S'Shiro'
(lp1086
S'Abel'
p1087
aI2
tp1088
a(I9
S'Stanick'
(lp1089
S'Cammy'
p1090
aI2
tp1091
a(I9
S'Dark Jiewa'
(lp1092
S'Ken'
p1093
aI2
tp1094
a(I13
S'Stekoh'
(lp1095
S'Abel'
p1096
aI1
tp1097
a(I13
S'Battousai'
(lp1098
S'Elena'
p1099
aI1
tp1100
a(I13
S'Kim1234'
(lp1101
S'M.Bison'
p1102
aI1
tp1103
a(I13
S'HumanBomb'
(lp1104
S'Sakura'
p1105
aS'Poison'
p1106
aI1
tp1107
aa(lp1108
(I1
S'Misse'
(lp1109
S'Makoto'
p1110
aI128
tp1111
a(I2
S'StromKubo'
(lp1112
S'Hugo'
p1113
aI64
tp1114
a(I3
S'Itabashi Zangief (Itazan)'
(lp1115
S'Zangief'
p1116
aI32
tp1117
a(I4
S'Chuan'
(lp1118
S'Guile'
p1119
aS'Fei Long'
p1120
aS'Rose'
p1121
aI16
tp1122
a(I5
S'Dark Jiewa'
(lp1123
S'Ken'
p1124
aI8
tp1125
a(I5
S'Tonpy'
(lp1126
S'C.Viper'
p1127
aI8
tp1128
a(I7
S'Gonzales'
(lp1129
S'Seth'
p1130
aI4
tp1131
a(I7
S'Reiketsu'
(lp1132
S'Poison'
p1133
aS'Vega'
p1134
aI4
tp1135
a(I9
S'KOK'
(lp1136
S'Sagat'
p1137
aI2
tp1138
a(I9
S'Onikiri Kai'
(lp1139
S'Balrog'
p1140
aI2
tp1141
a(I9
S'Sketch'
(lp1142
S'Rolento'
p1143
aI2
tp1144
a(I9
S'Shiro'
(lp1145
S'Abel'
p1146
aI2
tp1147
a(I13
S'CodyNP'
(lp1148
S'Chun-Li'
p1149
aI1
tp1150
a(I13
S'Inco'
(lp1151
S'Rufus'
p1152
aI1
tp1153
a(I13
S'SASA'
(lp1154
S'Will Update'
p1155
aI1
tp1156
a(I13
S'KIM1234'
(lp1157
S'M.Bison'
p1158
aI1
tp1159
aa(lp1160
(I1
S'Dieminion'
(lp1161
S'Guile'
p1162
aI128
tp1163
a(I2
S'Snake Eyez'
(lp1164
S'Zangief'
p1165
aS'Evil Ryu'
p1166
aI64
tp1167
a(I3
S'Phenom'
(lp1168
S'C.Viper'
p1169
aI32
tp1170
a(I4
S'Problem X'
(lp1171
S'C.Viper'
p1172
aI16
tp1173
a(I5
S'Joel'
(lp1174
S'Ryu'
p1175
aI8
tp1176
a(I5
S'K-Brad'
(lp1177
S'Cammy'
p1178
aI8
tp1179
a(I7
S'Zaferino'
(lp1180
S'Fei Long'
p1181
aI4
tp1182
a(I7
S'Julio'
(lp1183
S'Yun'
p1184
aI4
tp1185
a(I9
S'801Strider'
(lp1186
S'Abel'
p1187
aI2
tp1188
a(I9
S'ElChakotay'
(lp1189
S'El Fuerte'
p1190
aI2
tp1191
a(I9
S'Brenttiscool'
(lp1192
S'Rufus'
p1193
aI2
tp1194
a(I9
S'DarkChild'
(lp1195
S'Balrog'
p1196
aS'Rufus'
p1197
aI2
tp1198
a(I13
S'Alucard'
(lp1199
S'Sagat'
p1200
aS'Hugo'
p1201
aI1
tp1202
a(I13
S'NuckleDu'
(lp1203
S'Guile'
p1204
aS'Decapre'
p1205
aI1
tp1206
a(I13
S'NYChrisG'
(lp1207
S'Sakura'
p1208
aI1
tp1209
a(I13
S'Velociraptor'
(lp1210
S'Gouken'
p1211
aS'Evil Ryu'
p1212
aI1
tp1213
aa(lp1214
(I1
S'Infiltration'
(lp1215
S'Decapre'
p1216
aS'Ryu'
p1217
aI128
tp1218
a(I2
S'MOV'
(lp1219
S'Ibuki'
p1220
aS'M.Bison'
p1221
aI64
tp1222
a(I3
S'Tonpy'
(lp1223
S'C.Viper'
p1224
aI32
tp1225
a(I4
S'Dark Jiewa'
(lp1226
S'Ken'
p1227
aI16
tp1228
a(I5
S'HumanBomb'
(lp1229
S'Sakura'
p1230
aI8
tp1231
a(I5
S'Misse'
(lp1232
S'Makoto'
p1233
aI8
tp1234
a(I7
S'Xiao Hai'
(lp1235
S'Evil Ryu'
p1236
aS'Cammy'
p1237
aI4
tp1238
a(I7
S'Shiro'
(lp1239
S'Abel'
p1240
aI4
tp1241
a(I9
S'Dakou'
(lp1242
S'Evil Ryu'
p1243
aI2
tp1244
a(I9
S'Chuan'
(lp1245
S'Guile'
p1246
aS'M.Bison'
p1247
aS'Rose'
p1248
aS'Fei Long'
p1249
aI2
tp1250
a(I9
S'CodyNP'
(lp1251
S'Decapre'
p1252
aS'Hugo'
p1253
aS'Chun-Li'
p1254
aI2
tp1255
a(I9
S'Gonzales'
(lp1256
S'Seth'
p1257
aI2
tp1258
a(I13
S'Baoice'
(lp1259
S'Ibuki'
p1260
aI1
tp1261
a(I13
S'RB'
(lp1262
S'Rolento'
p1263
aS'Hugo'
p1264
aS'Guy'
p1265
aI1
tp1266
a(I13
S'Ahbao'
(lp1267
S'Evil Ryu'
p1268
aI1
tp1269
a(I13
S'KOK'
(lp1270
S'Evil Ryu'
p1271
aI1
tp1272
aa(lp1273
(I1
S'Tonpy'
(lp1274
S'C.Viper'
p1275
aI128
tp1276
a(I2
S'HumanBomb'
(lp1277
S'Sakura'
p1278
aI64
tp1279
a(I3
S'Nishikin'
(lp1280
S'Blanka'
p1281
aI32
tp1282
a(I4
S'Reiketsu'
(lp1283
S'Poison'
p1284
aI16
tp1285
a(I5
S'Dark Jiewa'
(lp1286
S'Ken'
p1287
aI8
tp1288
a(I5
S'Itabashi Zangief (Itazan)'
(lp1289
S'Zangief'
p1290
aI8
tp1291
a(I7
S'StormKUBO'
(lp1292
S'Hugo'
p1293
aI4
tp1294
a(I7
S'God of Sky'
(lp1295
S'Elena'
p1296
aI4
tp1297
a(I9
S'Dru'
(lp1298
S'Chun-Li'
p1299
aS'Decapre'
p1300
aI2
tp1301
a(I9
S'Kim1234'
(lp1302
S'M.Bison'
p1303
aI2
tp1304
a(I9
S'Keno'
(lp1305
S'Elena'
p1306
aI2
tp1307
a(I9
S'Gonzalez'
(lp1308
S'Seth'
p1309
aI2
tp1310
a(I13
S'Garret'
(lp1311
S'Makoto'
p1312
aI1
tp1313
a(I13
S'Ikatsui Yarou'
(lp1314
S'Zangief'
p1315
aI1
tp1316
a(I13
S'James'
(lp1317
S'Balrog'
p1318
aI1
tp1319
a(I13
S'Chuan'
(lp1320
S'Guile'
p1321
aI1
tp1322
aa(lp1323
(I1
S'Infiltration'
(lp1324
S'Decapre'
p1325
aS'Hugo'
p1326
aI128
tp1327
a(I2
S'Snake Eyez'
(lp1328
S'Zangief'
p1329
aI64
tp1330
a(I3
S'Pugera'
(lp1331
S'Ibuki'
p1332
aI32
tp1333
a(I4
S'801Strider'
(lp1334
S'Abel'
p1335
aI16
tp1336
a(I5
S'K-Brad'
(lp1337
S'Cammy'
p1338
aS'Chun-Li'
p1339
aI8
tp1340
a(I5
S'NYChrisG'
(lp1341
S'Sakura'
p1342
aI8
tp1343
a(I7
S'DR Ray'
(lp1344
S'Fei Long'
p1345
aI4
tp1346
a(I7
S'Huracan Azura'
(lp1347
S'T.Hawk'
p1348
aI4
tp1349
a(I9
S'Kreymore'
(lp1350
S'Juri'
p1351
aS'Guy'
p1352
aI2
tp1353
a(I9
S'Cocaneta'
(lp1354
S'Rolento'
p1355
aI2
tp1356
a(I9
S'NuckleDu'
(lp1357
S'Decapre'
p1358
aS'Guile'
p1359
aI2
tp1360
a(I9
S'Gorcrx'
(lp1361
S'Ken'
p1362
aI2
tp1363
a(I13
S'Haizek'
(lp1364
S'Decapre'
p1365
aI1
tp1366
a(I13
S'Ranmasama'
(lp1367
S'Decapre'
p1368
aI1
tp1369
a(I13
S'Famous'
(lp1370
S'El Fuerte'
p1371
aI1
tp1372
a(I13
S'Javits'
(lp1373
S'Balrog'
p1374
aI1
tp1375
aa(lp1376
(I1
S'Snake Eyez'
(lp1377
S'Zangief'
p1378
aI128
tp1379
a(I2
S'Dieminion'
(lp1380
S'Guile'
p1381
aI64
tp1382
a(I3
S'Tampa Bison'
(lp1383
S'M.Bison'
p1384
aI32
tp1385
a(I4
S'Ricki Ortiz'
(lp1386
S'Elena'
p1387
aS'Rufus'
p1388
aS'Chun-Li'
p1389
aI16
tp1390
a(I5
S'Brenttiscool'
(lp1391
S'Rufus'
p1392
aI8
tp1393
a(I5
S'801Strider'
(lp1394
S'Abel'
p1395
aI8
tp1396
a(I7
S'K-Brad'
(lp1397
S'Cammy'
p1398
aI4
tp1399
a(I7
S'Smug'
(lp1400
S'Dudley'
p1401
aI4
tp1402
a(I9
S'Alex Valle'
(lp1403
S'Hugo'
p1404
aI2
tp1405
a(I9
S'NuckleDu'
(lp1406
S'Guile'
p1407
aS'Decapre'
p1408
aI2
tp1409
a(I9
S'NYChrisG'
(lp1410
S'Sakura'
p1411
aI2
tp1412
a(I9
S'Flocker'
(lp1413
S'Cammy'
p1414
aI2
tp1415
a(I13
S'Damdai'
(lp1416
S'Decapre'
p1417
aI1
tp1418
a(I13
S'Shin Phoenix'
(lp1419
S'Vega'
p1420
aI1
tp1421
a(I13
S'Alucard'
(lp1422
S'Hugo'
p1423
aI1
tp1424
a(I13
S'Joel'
(lp1425
S'Ryu'
p1426
aI1
tp1427
aa(lp1428
(I1
S'Xiao Hai'
(lp1429
S'Evil Ryu'
p1430
aS'Cammy'
p1431
aS'Sagat'
p1432
aI128
tp1433
a(I2
S'Gackt'
(lp1434
S'Fei Long'
p1435
aS'Ryu'
p1436
aI64
tp1437
a(I3
S'Dark Jiewa'
(lp1438
S'Ken'
p1439
aI32
tp1440
a(I4
S'Tonpy'
(lp1441
S'C.Viper'
p1442
aI16
tp1443
a(I5
S'Gonzales'
(lp1444
S'Seth'
p1445
aI8
tp1446
a(I5
S'HumanBomb'
(lp1447
S'Sakura'
p1448
aI8
tp1449
a(I7
S'Shiro'
(lp1450
S'Abel'
p1451
aI4
tp1452
a(I7
S'KOK'
(lp1453
S'Sagat'
p1454
aI4
tp1455
a(I9
S'Chuan'
(lp1456
S'Guile'
p1457
aI2
tp1458
a(I9
S'Stanick'
(lp1459
S'Cammy'
p1460
aI2
tp1461
a(I9
S'Itabashi Zangief (Itazan)'
(lp1462
S'Zangief'
p1463
aI2
tp1464
a(I9
S'God of Sky'
(lp1465
S'Vega'
p1466
aS'Elena'
p1467
aS'Decapre'
p1468
aI2
tp1469
a(I13
S'Shaun'
(lp1470
S'Guy'
p1471
aI1
tp1472
a(I13
S'UltraBram'
(lp1473
S'Rolento'
p1474
aI1
tp1475
a(I13
S'CK-VNZ'
(lp1476
S'Evil Ryu'
p1477
aS'Ibuki'
p1478
aI1
tp1479
a(I13
S'Tuan Mario'
(lp1480
S'Adon'
p1481
aI1
tp1482
aa(lp1483
(I1
S'Dashio'
(lp1484
S'Seth'
p1485
aI256
tp1486
a(I2
S'Bonchan'
(lp1487
S'Sagat'
p1488
aI128
tp1489
a(I3
S'Infiltration'
(lp1490
S'Decapre'
p1491
aS'Akuma'
p1492
aS'Gouken'
p1493
aI64
tp1494
a(I4
S'Nemo'
(lp1495
S'Rolento'
p1496
aS'Decapre'
p1497
aI32
tp1498
a(I5
S'GamerBee'
(lp1499
S'Adon'
p1500
aS'Elena'
p1501
aI16
tp1502
a(I5
S'Mago'
(lp1503
S'Yang'
p1504
aI16
tp1505
a(I7
S'Kawaguchi'
(lp1506
S'Rose'
p1507
aI8
tp1508
a(I7
S'-6'
(lp1509
S'Poison'
p1510
aI8
tp1511
a(I9
S'AiAi'
(lp1512
S'Juri'
p1513
aI4
tp1514
a(I9
S'Shimauta'
(lp1515
S'Ibuki'
p1516
aI4
tp1517
a(I9
S'KojiKOG'
(lp1518
S'T.Hawk'
p1519
aI4
tp1520
a(I9
S'Fuudo'
(lp1521
S'Fei Long'
p1522
aI4
tp1523
a(I13
S'Akimo'
(lp1524
S'Elena'
p1525
aI2
tp1526
a(I13
S'Twiggy'
(lp1527
S'T.Hawk'
p1528
aI2
tp1529
a(I13
S'Kazunoko'
(lp1530
S'Yun'
p1531
aI2
tp1532
a(I13
S'MF Tonpy'
(lp1533
S'C.Viper'
p1534
aI2
tp1535
aa(lp1536
(I1
S'Xian'
(lp1537
S'Gen'
p1538
aS'Sagat'
p1539
aI256
tp1540
a(I2
S'Fuudo'
(lp1541
S'Fei Long'
p1542
aS'Seth'
p1543
aI128
tp1544
a(I3
S'Latif'
(lp1545
S'C.Viper'
p1546
aI64
tp1547
a(I4
S'Itabashi Zangief (Itazan)'
(lp1548
S'Zangief'
p1549
aI32
tp1550
a(I5
S'R'
(lp1551
S'Balrog'
p1552
aI16
tp1553
a(I5
S'Gannoon'
(lp1554
S'Sakura'
p1555
aI16
tp1556
a(I7
S'Ryan Hart (Prodigal Son)'
(lp1557
S'Sagat'
p1558
aS'Ryu'
p1559
aS'Yun'
p1560
aI8
tp1561
a(I7
S'Nox2'
(lp1562
S'Guy'
p1563
aS'Rolento'
p1564
aS'Sagat'
p1565
aI8
tp1566
a(I9
S'Santarouman'
(lp1567
S'Sagat'
p1568
aI4
tp1569
a(I9
S'Dudebag'
(lp1570
S'Ken'
p1571
aI4
tp1572
a(I9
S'KichijoujiKen'
(lp1573
S'Ken'
p1574
aI4
tp1575
a(I9
S'Akimo'
(lp1576
S'Elena'
p1577
aI4
tp1578
a(I13
S'Hunter'
(lp1579
S'Sagat'
p1580
aI2
tp1581
a(I13
S'Akira'
(lp1582
S'C.Viper'
p1583
aS'Rolento'
p1584
aI2
tp1585
a(I13
S'Dashio'
(lp1586
S'Seth'
p1587
aI2
tp1588
a(I13
S'EvilYoshi'
(lp1589
S'Evil Ryu'
p1590
aS'Yun'
p1591
aS'Rolento'
p1592
aI2
tp1593
aa(lp1594
(I1
S'Luffy'
(lp1595
S'Rose'
p1596
aI128
tp1597
a(I2
S'Valmaster'
(lp1598
S'Chun-Li'
p1599
aI64
tp1600
a(I3
S'Ryan Hart'
(lp1601
S'Sagat'
p1602
aS'Evil Ryu'
p1603
aI32
tp1604
a(I4
S'Deku Andreas'
(lp1605
S'Rufus'
p1606
aI16
tp1607
a(I5
S'Gonzales'
(lp1608
S'Seth'
p1609
aI8
tp1610
a(I5
S'Problem X'
(lp1611
S'Seth'
p1612
aS'Zangief'
p1613
aI8
tp1614
a(I7
S'Flawless Deku'
(lp1615
S'Fei Long'
p1616
aI4
tp1617
a(I7
S'Afii'
(lp1618
S'Poison'
p1619
aI4
tp1620
a(I9
S'Hurricane237'
(lp1621
S'Decapre'
p1622
aI2
tp1623
a(I9
S'Tyrant'
(lp1624
S'M.Bison'
p1625
aI2
tp1626
a(I9
S'Pro Fluke'
(lp1627
S'El Fuerte'
p1628
aI2
tp1629
a(I9
S'Ninja Shakz'
(lp1630
S'Abel'
p1631
aI2
tp1632
a(I13
S'Phenom'
(lp1633
S'M.Bison'
p1634
aI1
tp1635
a(I13
S'Gunslinga'
(lp1636
S'Guy'
p1637
aI1
tp1638
a(I13
S'Will2Pac'
(lp1639
S'C.Viper'
p1640
aI1
tp1641
a(I13
S'ImStillDaDaddy'
(lp1642
S'Guile'
p1643
aI1
tp1644
aa(lp1645
(I1
S'Shiro (Shirou)'
(lp1646
S'Abel'
p1647
aI128
tp1648
a(I2
S'Gonzales'
(lp1649
S'Seth'
p1650
aI64
tp1651
a(I3
S'Phenom'
(lp1652
S'M.Bison'
p1653
aI32
tp1654
a(I4
S'Problem X'
(lp1655
S'Seth'
p1656
aS'C.Viper'
p1657
aS'Dhalsim'
p1658
aI16
tp1659
a(I5
S'Veggey'
(lp1660
S'Zangief'
p1661
aS'Fei Long'
p1662
aI8
tp1663
a(I5
S'Pro Fluke'
(lp1664
S'El Fuerte'
p1665
aI8
tp1666
a(I7
S'ThunderBear'
(lp1667
S'Cody'
p1668
aI4
tp1669
a(I7
S'Packz'
(lp1670
S'Cody'
p1671
aI4
tp1672
a(I9
S'BliRedd'
(lp1673
S'Rose'
p1674
aI2
tp1675
a(I9
S'Rosso'
(lp1676
S'Ryu'
p1677
aS'Abel'
p1678
aS'Guile'
p1679
aI2
tp1680
a(I9
S'Pedram'
(lp1681
S'*'
aI2
tp1682
a(I9
S'Bashfest'
(lp1683
S'Sagat'
p1684
aI2
tp1685
a(I13
S'Badi Lootion'
(lp1686
S'*'
aI1
tp1687
a(I13
S'Leffen'
(lp1688
S'Yun'
p1689
aS'Evil Ryu'
p1690
aI1
tp1691
a(I13
S'Eunbeen'
(lp1692
S'*'
aI1
tp1693
a(I13
S'Duppsko'
(lp1694
S'Decapre'
p1695
aI1
tp1696
aa(lp1697
(I1
S'Luffy'
(lp1698
S'Rose'
p1699
aI128
tp1700
a(I2
S'Valmaster'
(lp1701
S'Chun-Li'
p1702
aI64
tp1703
a(I3
S'K-Brad'
(lp1704
S'Cammy'
p1705
aI32
tp1706
a(I4
S'MBR'
(lp1707
S'Akuma'
p1708
aI16
tp1709
a(I5
S'Gagapa'
(lp1710
S'M.Bison'
p1711
aI8
tp1712
a(I5
S'Phenom'
(lp1713
S'M.Bison'
p1714
aI8
tp1715
a(I7
S'Packz'
(lp1716
S'Cody'
p1717
aI4
tp1718
a(I7
S'Gonzales'
(lp1719
S'Seth'
p1720
aI4
tp1721
a(I9
S'Deku Andreas'
(lp1722
S'Rufus'
p1723
aI2
tp1724
a(I9
S'Problem X'
(lp1725
S'C.Viper'
p1726
aS'Seth'
p1727
aS'Makoto'
p1728
aI2
tp1729
a(I9
S'Ryan Hart'
(lp1730
S'Sagat'
p1731
aI2
tp1732
a(I9
S'Afii'
(lp1733
S'Poison'
p1734
aI2
tp1735
a(I13
S'Demulant'
(lp1736
S'Sagat'
p1737
aI1
tp1738
a(I13
S'Will2Pac'
(lp1739
S'C.Viper'
p1740
aI1
tp1741
a(I13
S'Cuongster'
(lp1742
S'Yun'
p1743
aI1
tp1744
a(I13
S'Emersion'
(lp1745
S'Vega'
p1746
aI1
tp1747
aa(lp1748
(I1
S'Dakou'
(lp1749
S'Evil Ryu'
p1750
aI128
tp1751
a(I2
S'Gackt'
(lp1752
S'Fei Long'
p1753
aS'Ryu'
p1754
aS'Sagat'
p1755
aI64
tp1756
a(I3
S'HumanBomb'
(lp1757
S'Sakura'
p1758
aI32
tp1759
a(I4
S'Xiao Hai'
(lp1760
S'Evil Ryu'
p1761
aS'Elena'
p1762
aI16
tp1763
a(I5
S'Fuudo'
(lp1764
S'Fei Long'
p1765
aI8
tp1766
a(I5
S'Xiaohu'
(lp1767
S'Rose'
p1768
aI8
tp1769
a(I7
S'God of Sky'
(lp1770
S'Vega'
p1771
aS'Elena'
p1772
aS'Decapre'
p1773
aS'Hakan'
p1774
aI4
tp1775
a(I7
S'Itabashi Zangief (Itazan)'
(lp1776
S'Zangief'
p1777
aI4
tp1778
a(I9
S'StormKUBO'
(lp1779
S'Hugo'
p1780
aI2
tp1781
a(I9
S'Tonpy'
(lp1782
S'C.Viper'
p1783
aI2
tp1784
a(I9
S'Dark Jiewa'
(lp1785
S'Ken'
p1786
aI2
tp1787
a(I9
S'KOK'
(lp1788
S'Sagat'
p1789
aI2
tp1790
a(I13
S'RMZ'
(lp1791
S'Yun'
p1792
aS'Sagat'
p1793
aI1
tp1794
a(I13
S'Shiro'
(lp1795
S'Abel'
p1796
aI1
tp1797
a(I13
S'Tian Sia Ren'
(lp1798
S'Cammy'
p1799
aI1
tp1800
a(I13
S'Meishan Quanwang'
(lp1801
S'Adon'
p1802
aI1
tp1803
aa(lp1804
(I1
S'Bonchan'
(lp1805
S'Sagat'
p1806
aI256
tp1807
a(I2
S'Kazunoko'
(lp1808
S'Yun'
p1809
aI128
tp1810
a(I3
S'Xiao Hai'
(lp1811
S'Evil Ryu'
p1812
aS'Cammy'
p1813
aS'Sagat'
p1814
aI64
tp1815
a(I4
S'Filipinoman'
(lp1816
S'Rose'
p1817
aI32
tp1818
a(I5
S'Reiketsu'
(lp1819
S'Vega'
p1820
aS'Poison'
p1821
aS'Ibuki'
p1822
aI16
tp1823
a(I5
S'SnakeEyez'
(lp1824
S'Zangief'
p1825
aS'Evil Ryu'
p1826
aI16
tp1827
a(I7
S'Alucard'
(lp1828
S'Hugo'
p1829
aS'Sagat'
p1830
aI8
tp1831
a(I7
S'Pnoy'
(lp1832
S'M.Bison'
p1833
aS'Adon'
p1834
aI8
tp1835
a(I9
S'EightGrade'
(lp1836
S'Akuma'
p1837
aI4
tp1838
a(I9
S'LPN'
(lp1839
S'Rolento'
p1840
aS'Adon'
p1841
aS'Abel'
p1842
aI4
tp1843
a(I9
S'Dieminion'
(lp1844
S'Guile'
p1845
aI4
tp1846
a(I9
S'Nando Tovar'
(lp1847
S'El Fuerte'
p1848
aI4
tp1849
a(I13
S'Momochi'
(lp1850
S'Evil Ryu'
p1851
aS'Guy'
p1852
aI2
tp1853
a(I13
S'Jayce the Ace'
(lp1854
S'C.Viper'
p1855
aS'Decapre'
p1856
aI2
tp1857
a(I13
S'PR Balrog'
(lp1858
S'Balrog'
p1859
aS'Fei Long'
p1860
aI2
tp1861
a(I13
S'Hsien Chang'
(lp1862
S'Yun'
p1863
aI2
tp1864
aa(lp1865
(I1
S'Keoma'
(lp1866
S'Abel'
p1867
aI256
tp1868
a(I2
S'Haitani'
(lp1869
S'Makoto'
p1870
aS'Rufus'
p1871
aI128
tp1872
a(I3
S'Ibukiman'
(lp1873
S'Ibuki'
p1874
aS'Oni'
p1875
aS'Juri'
p1876
aI64
tp1877
a(I4
S'ChuChu'
(lp1878
S'C.Viper'
p1879
aS'Sakura'
p1880
aS'Poison'
p1881
aI32
tp1882
a(I5
S'XR Prometo'
(lp1883
S'Balrog'
p1884
aI16
tp1885
a(I5
S'Pr3da'
(lp1886
S'Rolento'
p1887
aS'Elena'
p1888
aI16
tp1889
a(I7
S'Caju'
(lp1890
S'Hakan'
p1891
aI8
tp1892
a(I7
S'Guiller BR'
(lp1893
S'Guile'
p1894
aI8
tp1895
a(I9
S'Alexandro'
(lp1896
S'Ken'
p1897
aI4
tp1898
a(I9
S'Pepeday'
(lp1899
S'El Fuerte'
p1900
aI4
tp1901
a(I9
S'CamizaKOF'
(lp1902
S'Hugo'
p1903
aS'Sagat'
p1904
aS'T.Hawk'
p1905
aI4
tp1906
a(I9
S'Baby Brasil'
(lp1907
S'Rufus'
p1908
aI4
tp1909
a(I13
S'Dark817'
(lp1910
S'Abel'
p1911
aI2
tp1912
a(I13
S'Fabinho'
(lp1913
S'Zangief'
p1914
aI2
tp1915
a(I13
S'Xitao'
(lp1916
S'Adon'
p1917
aI2
tp1918
a(I13
S'Jacare'
(lp1919
S'Cammy'
p1920
aS'Rufus'
p1921
aI2
tp1922
aa(lp1923
(I1
S'Bonchan'
(lp1924
S'Sagat'
p1925
aI256
tp1926
a(I2
S'Nemo'
(lp1927
S'Rolento'
p1928
aI128
tp1929
a(I3
S'Rokkun'
(lp1930
S'Seth'
p1931
aI64
tp1932
a(I4
S'KitasenjuDJ'
(lp1933
S'Dee Jay'
p1934
aI32
tp1935
a(I5
S'Inco'
(lp1936
S'Rufus'
p1937
aI16
tp1938
a(I5
S'Shinba'
(lp1939
S'Abel'
p1940
aI16
tp1941
a(I7
S'Dunhill'
(lp1942
S'Sakura'
p1943
aI8
tp1944
a(I7
S'Momochi'
(lp1945
S'Ken'
p1946
aI8
tp1947
a(I9
S'Nishikin'
(lp1948
S'Blanka'
p1949
aI4
tp1950
a(I9
S'Yossan'
(lp1951
S'Juri'
p1952
aI4
tp1953
a(I9
S'-6'
(lp1954
S'Poison'
p1955
aI4
tp1956
a(I9
S'Fuudo'
(lp1957
S'Fei Long'
p1958
aI4
tp1959
a(I13
S'StormKUBO'
(lp1960
S'Hugo'
p1961
aI2
tp1962
a(I13
S'EX Pugera'
(lp1963
S'Dudley'
p1964
aS'Gen'
p1965
aI2
tp1966
a(I13
S'MDR'
(lp1967
S'Rufus'
p1968
aI2
tp1969
a(I13
S'KOK'
(lp1970
S'Evil Ryu'
p1971
aI2
tp1972
aa(lp1973
(I1
S'Fuudo'
(lp1974
S'Fei Long'
p1975
aS'Seth'
p1976
aI256
tp1977
a(I2
S'Xian'
(lp1978
S'Gen'
p1979
aS'Elena'
p1980
aS'Poison'
p1981
aI128
tp1982
a(I3
S'RB'
(lp1983
S'Rolento'
p1984
aI64
tp1985
a(I4
S'Ryan Hart (Prodigal Son)'
(lp1986
S'Sagat'
p1987
aS'Abel'
p1988
aS'Evil Ryu'
p1989
aS'Yun'
p1990
aI32
tp1991
a(I5
S'Luffy'
(lp1992
S'Rose'
p1993
aI16
tp1994
a(I5
S'Gonzales'
(lp1995
S'Seth'
p1996
aI16
tp1997
a(I7
S'Eita'
(lp1998
S'Akuma'
p1999
aI8
tp2000
a(I7
S'K-Brad'
(lp2001
S'Cammy'
p2002
aI8
tp2003
a(I9
S'Reiketsu'
(lp2004
S'Vega'
p2005
aI4
tp2006
a(I9
S'Shiro (Shirou)'
(lp2007
S'Abel'
p2008
aI4
tp2009
a(I9
S'Pro Fluke'
(lp2010
S'El Fuerte'
p2011
aI4
tp2012
a(I9
S'Tonpy'
(lp2013
S'C.Viper'
p2014
aI4
tp2015
a(I13
S'Haitani'
(lp2016
S'Makoto'
p2017
aI2
tp2018
a(I13
S'Valmaster'
(lp2019
S'Chun-Li'
p2020
aI2
tp2021
a(I13
S'Phenom'
(lp2022
S'M.Bison'
p2023
aI2
tp2024
a(I13
S'Kindevu'
(lp2025
S'Akuma'
p2026
aS'Elena'
p2027
aS'Seth'
p2028
aI2
tp2029
aa(lp2030
(I1
S'Justin Wong'
(lp2031
S'Elena'
p2032
aS'Rose'
p2033
aS'Rufus'
p2034
aI128
tp2035
a(I2
S'Snake Eyez'
(lp2036
S'Zangief'
p2037
aI64
tp2038
a(I3
S'NuckleDu'
(lp2039
S'Decapre'
p2040
aS'Guile'
p2041
aS'Akuma'
p2042
aI32
tp2043
a(I4
S'Shine'
(lp2044
S'Yang'
p2045
aS'Gouken'
p2046
aI16
tp2047
a(I5
S'Smug'
(lp2048
S'Dudley'
p2049
aI8
tp2050
a(I5
S'Riceata'
(lp2051
S'Blanka'
p2052
aI8
tp2053
a(I7
S'Dieminion'
(lp2054
S'Guile'
p2055
aI4
tp2056
a(I7
S'Zaferino'
(lp2057
S'Fei Long'
p2058
aS'Chun-Li'
p2059
aI4
tp2060
a(I9
S'CrazySalvi'
(lp2061
S'Rose'
p2062
aI2
tp2063
a(I9
S'Problem X'
(lp2064
S'C.Viper'
p2065
aI2
tp2066
a(I9
S'NativeImpact'
(lp2067
S'T.Hawk'
p2068
aI2
tp2069
a(I9
S'BobbyBlunts'
(lp2070
S'Seth'
p2071
aI2
tp2072
a(I13
S'RLBS'
(lp2073
S'Guy'
p2074
aI1
tp2075
a(I13
S'Integra'
(lp2076
S'Ken'
p2077
aI1
tp2078
a(I13
S'Sanford Kelly'
(lp2079
S'Oni'
p2080
aI1
tp2081
a(I13
S'Joel'
(lp2082
S'Ryu'
p2083
aI1
tp2084
aa(lp2085
(I1
S'Itabashi Zangief (Itazan)'
(lp2086
S'Zangief'
p2087
aI128
tp2088
a(I2
S'801Strider'
(lp2089
S'Abel'
p2090
aI64
tp2091
a(I3
S'PR Balrog'
(lp2092
S'Balrog'
p2093
aS'Evil Ryu'
p2094
aI32
tp2095
a(I4
S'Doomsday 507'
(lp2096
S'Dudley'
p2097
aS'Cody'
p2098
aI16
tp2099
a(I5
S'Bebedero'
(lp2100
S'Zangief'
p2101
aS'Ibuki'
p2102
aI8
tp2103
a(I5
S'Kakaroto'
(lp2104
S'Ryu'
p2105
aS'Evil Ryu'
p2106
aS'Yun'
p2107
aI8
tp2108
a(I7
S'Gabo'
(lp2109
S'C.Viper'
p2110
aI4
tp2111
a(I7
S'Doomed'
(lp2112
S'Decapre'
p2113
aI4
tp2114
a(I9
S'Andy'
(lp2115
S'Evil Ryu'
p2116
aS'Yun'
p2117
aI2
tp2118
a(I9
S'Berzack'
(lp2119
S'Cody'
p2120
aS'Rose'
p2121
aI2
tp2122
a(I9
S'Nano'
(lp2123
S'Balrog'
p2124
aS'Abel'
p2125
aI2
tp2126
a(I9
S'Ars'
(lp2127
S'Dhalsim'
p2128
aS'Guy'
p2129
aI2
tp2130
a(I13
S'Kike'
(lp2131
S'Abel'
p2132
aS'Vega'
p2133
aI1
tp2134
a(I13
S'Kenji'
(lp2135
S'Evil Ryu'
p2136
aS'Rolento'
p2137
aI1
tp2138
a(I13
S'BS Ioros'
(lp2139
S'Fei Long'
p2140
aS'M.Bison'
p2141
aI1
tp2142
a(I13
S'Goj1980'
(lp2143
S'Blanka'
p2144
aI1
tp2145
aa(lp2146
(I1
S'Tokido'
(lp2147
S'Akuma'
p2148
aI256
tp2149
a(I2
S'Fuudo'
(lp2150
S'Fei Long'
p2151
aS'Seth'
p2152
aI128
tp2153
a(I3
S'Momochi'
(lp2154
S'Ken'
p2155
aS'Guy'
p2156
aS'Evil Ryu'
p2157
aI64
tp2158
a(I4
S'GamerBee'
(lp2159
S'Elena'
p2160
aS'Adon'
p2161
aI32
tp2162
a(I5
S'Snake Eyez'
(lp2163
S'Zangief'
p2164
aI16
tp2165
a(I5
S'Itabashi Zangief (Itazan)'
(lp2166
S'Zangief'
p2167
aI16
tp2168
a(I7
S'Mago'
(lp2169
S'Fei Long'
p2170
aS'Yang'
p2171
aI8
tp2172
a(I7
S'801 Jayce the Ace'
(lp2173
S'Decapre'
p2174
aS'C.Viper'
p2175
aI8
tp2176
a(I9
S'Kazunoko'
(lp2177
S'Yun'
p2178
aI4
tp2179
a(I9
S'Justin Wong'
(lp2180
S'Elena'
p2181
aI4
tp2182
a(I9
S'Misse'
(lp2183
S'Makoto'
p2184
aI4
tp2185
a(I9
S'Bonchan'
(lp2186
S'Sagat'
p2187
aI4
tp2188
a(I13
S'Xian'
(lp2189
S'Gen'
p2190
aI2
tp2191
a(I13
S'MOV'
(lp2192
S'Ibuki'
p2193
aI2
tp2194
a(I13
S'Ricki Ortiz'
(lp2195
S'Elena'
p2196
aS'Rolento'
p2197
aI2
tp2198
a(I13
S'Air'
(lp2199
S'Poison'
p2200
aI2
tp2201
aa.