(lp1
(lp2
(I1
S'Poongko'
(lp3
S'Seth'
p4
aS'El Fuerte'
p5
aI128
tp6
a(I2
S'Sako'
(lp7
S'Elena'
p8
aS'Evil Ryu'
p9
aS'Gen'
p10
aI64
tp11
a(I3
S'Infiltration'
(lp12
S'Decapre'
p13
aS'Akuma'
p14
aS'Hakan'
p15
aI32
tp16
a(I4
S'JehoSan'
(lp17
S'Cammy'
p18
aS'Decapre'
p19
aS'Guile'
p20
aI16
tp21
a(I5
S'Tonpy'
(lp22
S'C.Viper'
p23
aI8
tp24
a(I5
S'Valmaster'
(lp25
S'Chun-Li'
p26
aI8
tp27
a(I7
S'Dieminion'
(lp28
S'Guile'
p29
aI4
tp30
a(I7
S'Xiao Hai'
(lp31
S'Cammy'
p32
aI4
tp33
a(I9
S'ImStillDaDaddy'
(lp34
S'Guile'
p35
aI2
tp36
a(I9
S'Ninja Shakz'
(lp37
S'Abel'
p38
aI2
tp39
a(I9
S'Prodigal Son'
(lp40
S'Sagat'
p41
aS'Ryu'
p42
aS'Abel'
p43
aI2
tp44
a(I9
S'Problem X'
(lp45
S'C.Viper'
p46
aI2
tp47
a(I13
S'F-Word'
(lp48
S'Ibuki'
p49
aI1
tp50
a(I13
S'Pro Fluke'
(lp51
S'El Fuerte'
p52
aI1
tp53
a(I13
S'Renegad'
(lp54
S'Poison'
p55
aI1
tp56
a(I13
S'Phenom'
(lp57
S'M.Bison'
p58
aI1
tp59
aa(lp60
(I1
S'Dark Jiewa'
(lp61
S'Ken'
p62
aI128
tp63
a(I2
S'Humanbomb'
(lp64
S'Sakura'
p65
aS'Poison'
p66
aS'Ryu'
p67
aI64
tp68
a(I3
S'Chuan'
(lp69
S'Guile'
p70
aS'Fei Long'
p71
aS'Zangief'
p72
aS'Yun'
p73
aI32
tp74
a(I4
S'XiaoLong'
(lp75
S'M.Bison'
p76
aI16
tp77
a(I5
S'Saunic'
(lp78
S'Ibuki'
p79
aS'Dhalsim'
p80
aI8
tp81
a(I5
S'Revenger32'
(lp82
S'Abel'
p83
aI8
tp84
a(I7
S'CodyNp'
(lp85
S'Decapre'
p86
aS'Poison'
p87
aS'Ryu'
p88
aI4
tp89
a(I7
S'Dian'
(lp90
S'Guile'
p91
aS'M.Bison'
p92
aI4
tp93
a(I9
S'Susubabi'
(lp94
S'Sagat'
p95
aI2
tp96
a(I9
S'AHo'
(lp97
S'Rolento'
p98
aI2
tp99
a(I9
S'Shamwow'
(lp100
S'Rose'
p101
aI2
tp102
a(I9
S'Cameraman'
(lp103
S'T.Hawk'
p104
aI2
tp105
a(I13
S'Nekopunch'
(lp106
S'Yun'
p107
aI1
tp108
a(I13
S'Kenmike77'
(lp109
S'Ken'
p110
aI1
tp111
a(I13
S'Ush'
(lp112
S'Poison'
p113
aI1
tp114
a(I13
S'Drapoyo'
(lp115
S'Guile'
p116
aI1
tp117
aa(lp118
(I1
S'Infiltration'
(lp119
S'Decapre'
p120
aS'Akuma'
p121
aI128
tp122
a(I2
S'Poongko'
(lp123
S'Seth'
p124
aS'El Fuerte'
p125
aI64
tp126
a(I3
S'Shiro'
(lp127
S'Abel'
p128
aI32
tp129
a(I4
S'Inco'
(lp130
S'Rufus'
p131
aI16
tp132
a(I5
S'Nishikin'
(lp133
S'Blanka'
p134
aI8
tp135
a(I5
S'Gattikun'
(lp136
S'Sagat'
p137
aI8
tp138
a(I7
S'Kindo'
(lp139
S'Guy'
p140
aI4
tp141
a(I7
S'Mizoteru'
(lp142
S'Blanka'
p143
aI4
tp144
a(I9
S'Itazan'
(lp145
S'Zangief'
p146
aI2
tp147
a(I9
S'Chiaki'
(lp148
S'Chun-Li'
p149
aI2
tp150
a(I9
S'Anton'
(lp151
S'Gouken'
p152
aI2
tp153
a(I9
S'Misse'
(lp154
S'Makoto'
p155
aI2
tp156
a(I13
S'Akimo'
(lp157
S'Elena'
p158
aI1
tp159
a(I13
S'Hikarin'
(lp160
S'Oni'
p161
aI1
tp162
a(I13
S'FGC/pepeday'
(lp163
S'El Fuerte'
p164
aI1
tp165
a(I13
S'Kawaguchi'
(lp166
S'Rose'
p167
aI1
tp168
aa(lp169
(I1
S'Xian'
(lp170
S'Gen'
p171
aS'Elena'
p172
aI256
tp173
a(I2
S'Momochi'
(lp174
S'Ken'
p175
aS'Elena'
p176
aI128
tp177
a(I3
S'Fuudo'
(lp178
S'Fei Long'
p179
aI64
tp180
a(I4
S'Kazunoko'
(lp181
S'Yun'
p182
aI32
tp183
a(I5
S'Dieminion'
(lp184
S'Guile'
p185
aI16
tp186
a(I5
S'Sabin'
(lp187
S'Dhalsim'
p188
aI16
tp189
a(I7
S'Snake Eyez'
(lp190
S'Zangief'
p191
aS'Evil Ryu'
p192
aI8
tp193
a(I7
S'Hiro'
(lp194
S'M.Bison'
p195
aI8
tp196
a(I9
S'Ricky Ortiz'
(lp197
S'Rufus'
p198
aS'Rolento'
p199
aI4
tp200
a(I9
S'Bonchan'
(lp201
S'Sagat'
p202
aI4
tp203
a(I9
S'Tampa Bison'
(lp204
S'M.Bison'
p205
aI4
tp206
a(I9
S'Filipinoman'
(lp207
S'Rose'
p208
aI4
tp209
a(I13
S'Chris Tatarian'
(lp210
S'Ken'
p211
aI2
tp212
a(I13
S'NuckleDu'
(lp213
S'Guile'
p214
aI2
tp215
a(I13
S'Mago'
(lp216
S'Yang'
p217
aI2
tp218
a(I13
S'Daigo'
(lp219
S'Evil Ryu'
p220
aI2
tp221
aa(lp222
(I1
S'Daigo Umehara'
(lp223
S'Evil Ryu'
p224
aI256
tp225
a(I2
S'Gamerbee'
(lp226
S'Adon'
p227
aS'Elena'
p228
aI128
tp229
a(I3
S'NuckleDu'
(lp230
S'Guile'
p231
aS'Decapre'
p232
aS'Ibuki'
p233
aI64
tp234
a(I4
S'Bonchan'
(lp235
S'Sagat'
p236
aI32
tp237
a(I5
S'Justin Wong'
(lp238
S'Rufus'
p239
aS'Rose'
p240
aI16
tp241
a(I5
S'Smug'
(lp242
S'Dudley'
p243
aI16
tp244
a(I7
S'Infiltration'
p245
(lp246
S'Decapre'
p247
aS'Akuma'
p248
aS'Chun-Li'
p249
aI8
tp250
a(I7
S'Kazunoko'
(lp251
S'Yun'
p252
aI8
tp253
a(I9
S'Momochi'
(lp254
S'Ken'
p255
aS'Evil Ryu'
p256
aI4
tp257
a(I9
S'Snake Eyez'
(lp258
S'Zangief'
p259
aI4
tp260
a(I9
S'801 Strider'
(lp261
S'Abel'
p262
aI4
tp263
a(I9
S'Poongko'
(lp264
S'Seth'
p265
aI4
tp266
a(I13
S'SD Pnoy'
(lp267
S'M.Bison'
p268
aI2
tp269
a(I13
S'Ricky Ortiz'
(lp270
S'Rufus'
p271
aS'Chun-Li'
p272
aI2
tp273
a(I13
S'EX Pugera'
(lp274
S'Ibuki'
p275
aI2
tp276
a(I13
S'Marq Teddy'
(lp277
S'Guy'
p278
aI2
tp279
aa(lp280
(I1
S'Mago'
(lp281
S'Yang'
p282
aI256
tp283
a(I2
S'Tokido'
(lp284
S'Akuma'
p285
aI128
tp286
a(I3
S'Luffy'
(lp287
S'Rose'
p288
aI64
tp289
a(I4
S'Ryan Hart'
(lp290
S'Decapre'
p291
aS'Abel'
p292
aS'Rolento'
p293
aS'Sagat'
p294
aI32
tp295
a(I5
S'Pro Fluke'
(lp296
S'El Fuerte'
p297
aI16
tp298
a(I5
S'Xian'
(lp299
S'Gen'
p300
aS'Elena'
p301
aI16
tp302
a(I7
S'Shoryusengan'
(lp303
S'Ken'
p304
aI8
tp305
a(I7
S'ImStillDaDaddy'
(lp306
S'Guile'
p307
aS'Decapre'
p308
aI8
tp309
a(I9
S'Hurricane237'
(lp310
S'Decapre'
p311
aI4
tp312
a(I9
S'Andreas'
(lp313
S'Rufus'
p314
aI4
tp315
a(I9
S'Milligano'
(lp316
S'M.Bison'
p317
aI4
tp318
a(I9
S'Problem X'
(lp319
S'C.Viper'
p320
aI4
tp321
a(I13
S'Saunic'
(lp322
S'Ibuki'
p323
aI2
tp324
a(I13
S'OverMostHeads'
(lp325
S'Oni'
p326
aI2
tp327
a(I13
S'Damascus'
(lp328
S'Ibuki'
p329
aI2
tp330
a(I13
S'Afii'
(lp331
S'Poison'
p332
aI2
tp333
aa(lp334
(I1
S'Justin Wong'
(lp335
S'Rufus'
p336
aI128
tp337
a(I2
S'KojiKOG'
(lp338
S'T.Hawk'
p339
aI64
tp340
a(I3
S'LPN'
(lp341
S'Rolento'
p342
aS'Cammy'
p343
aS'Ken'
p344
aS'Abel'
p345
aI32
tp346
a(I4
S'Sabin (Arturo Sanchez)'
(lp347
S'Dhalsim'
p348
aS'Rose'
p349
aI16
tp350
a(I5
S'NYChrisG'
(lp351
S'Sakura'
p352
aI8
tp353
a(I5
S'Native Impact'
(lp354
S'T.Hawk'
p355
aI8
tp356
a(I7
S'Fawwaz'
(lp357
S'C.Viper'
p358
aI4
tp359
a(I7
S'Air'
(lp360
S'Poison'
p361
aS'Ryu'
p362
aI4
tp363
a(I9
S'Nando Tovar'
(lp364
S'El Fuerte'
p365
aI2
tp366
a(I9
S'Ricky Ortiz'
(lp367
S'Rufus'
p368
aS'Rolento'
p369
aI2
tp370
a(I9
S'PR Balrog'
(lp371
S'Balrog'
p372
aI2
tp373
a(I9
S'Julio'
(lp374
S'Yun'
p375
aI2
tp376
a(I13
S'Dickson'
(lp377
S'Decapre'
p378
aI1
tp379
a(I13
S'Brentt'
(lp380
S'Rufus'
p381
aI1
tp382
a(I13
S'Hoodaman'
(lp383
S'E.Honda'
p384
aI1
tp385
a(I13
S'Jayce the Ace'
(lp386
S'Decapre'
p387
aS'C.Viper'
p388
aI1
tp389
aa(lp390
(I1
S'Infiltration'
(lp391
S'Decapre'
p392
aS'Akuma'
p393
aS'Gouken'
p394
aS'Abel'
p395
aI128
tp396
a(I2
S'Bonchan'
(lp397
S'Sagat'
p398
aS'Yun'
p399
aI64
tp400
a(I3
S'Poongko'
(lp401
S'Seth'
p402
aI32
tp403
a(I4
S'Kazunoko'
(lp404
S'Yun'
p405
aI16
tp406
a(I5
S'Humanbomb'
(lp407
S'Sakura'
p408
aI8
tp409
a(I5
S'Tokido'
(lp410
S'Akuma'
p411
aI8
tp412
a(I7
S'Itabashi Zangief'
(lp413
S'Zangief'
p414
aI4
tp415
a(I7
S'Eita'
(lp416
S'Akuma'
p417
aI4
tp418
a(I9
S'Dark Jiewa'
(lp419
S'Ken'
p420
aI2
tp421
a(I9
S'DB Koopa'
(lp422
S'Yun'
p423
aI2
tp424
a(I9
S'KOK'
(lp425
S'Sagat'
p426
aS'Evil Ryu'
p427
aI2
tp428
a(I9
S'Chuan'
(lp429
S'Guile'
p430
aI2
tp431
a(I13
S'FRS'
(lp432
S'Rolento'
p433
aI1
tp434
a(I13
S'Laugh'
(lp435
S'Evil Ryu'
p436
aI1
tp437
a(I13
S'Shiro'
(lp438
S'Abel'
p439
aI1
tp440
a(I13
S'Kim1234'
(lp441
S'M.Bison'
p442
aI1
tp443
aa(lp444
(I1
S'Nemo'
(lp445
S'Rolento'
p446
aS'Decapre'
p447
aI128
tp448
a(I2
S'Tonpy'
(lp449
S'c.Viper'
p450
aI64
tp451
a(I3
S'Tokido'
(lp452
S'Akuma'
p453
aI32
tp454
a(I4
S'Kazunoko'
(lp455
S'Yun'
p456
aI16
tp457
a(I5
S'Bonchan'
(lp458
S'Sagat'
p459
aI8
tp460
a(I5
S'Inco'
(lp461
S'Rufus'
p462
aI8
tp463
a(I7
S'Pepeday'
(lp464
S'El Fuerte'
p465
aI4
tp466
a(I7
S'KojiKOG'
(lp467
S'T.Hawk'
p468
aI4
tp469
a(I9
S'Misse'
(lp470
S'Makoto'
p471
aI2
tp472
a(I9
S'Kawaguchi'
(lp473
S'Rose'
p474
aI2
tp475
a(I9
S'Gachikun'
(lp476
S'Sagat'
p477
aI2
tp478
a(I9
S'Shiro'
(lp479
S'Abel'
p480
aI2
tp481
a(I13
S'Meu'
(lp482
S'Makoto'
p483
aI1
tp484
a(I13
S'Haitani'
(lp485
S'El Fuerte'
p486
aI1
tp487
a(I13
S'Eita'
(lp488
S'Akuma'
p489
aI1
tp490
a(I13
S'Taayan'
(lp491
S'El Fuerte'
p492
aI1
tp493
aa(lp494
(I1
S'Infiltration'
(lp495
S'Akuma'
p496
aS'Ryu'
p497
aS'Ken'
p498
aS'Chun-Li'
p499
aS'Elena'
p500
aS'Rolento'
p501
aI128
tp502
a(I2
S'SnakeEyez'
(lp503
S'Zangief'
p504
aI64
tp505
a(I3
S'K-Brad'
(lp506
S'Cammy'
p507
aS'Chun-Li'
p508
aI32
tp509
a(I4
S'801Strider'
(lp510
S'Abel'
p511
aI16
tp512
a(I5
S'NYChrisG'
(lp513
S'Sakura'
p514
aI8
tp515
a(I5
S'Ricki Ortiz'
(lp516
S'Rolento'
p517
aS'Rufus'
p518
aS'Chun-Li'
p519
aI8
tp520
a(I7
S'Magneto1080p'
(lp521
S'Elena'
p522
aI4
tp523
a(I7
S'Hsien Chang'
(lp524
S'Yun'
p525
aI4
tp526
a(I9
S'FourWude'
(lp527
S'Akuma'
p528
aI2
tp529
a(I9
S'Air'
(lp530
S'Poison'
p531
aI2
tp532
a(I9
S'Integra'
(lp533
S'Ken'
p534
aI2
tp535
a(I9
S'Justin Wong'
(lp536
S'Rufus'
p537
aI2
tp538
a(I13
S'Hamad'
(lp539
S'Fei Long'
p540
aI1
tp541
a(I13
S'Chaotix'
(lp542
S'Dudley'
p543
aI1
tp544
a(I13
S'NuckleDu'
(lp545
S'Guile'
p546
aS'Decapre'
p547
aI1
tp548
a(I13
S'Onisan'
(lp549
S'Abel'
p550
aI1
tp551
aa(lp552
(I1
S'NuckleDu'
(lp553
S'Guile'
p554
aI128
tp555
a(I2
S'Ricki Ortiz'
(lp556
S'Rufus'
p557
aS'Rolento'
p558
aI64
tp559
a(I3
S'Justin Wong'
(lp560
S'Rufus'
p561
aS'Rose'
p562
aS'Adon'
p563
aI32
tp564
a(I4
S'Wolfkrone'
(lp565
S'C.Viper'
p566
aI16
tp567
a(I5
S'Air'
(lp568
S'Poison'
p569
aI8
tp570
a(I5
S'Sabin'
(lp571
S'Dhalsim'
p572
aI8
tp573
a(I7
S'K-Brad'
(lp574
S'Cammy'
p575
aI4
tp576
a(I7
S'Khangaroo'
(lp577
S'Dudley'
p578
aI4
tp579
a(I9
S'Joel'
(lp580
S'Ryu'
p581
aI2
tp582
a(I9
S'Onisan'
(lp583
S'Abel'
p584
aI2
tp585
a(I9
S'KDZ'
(lp586
S'Yun'
p587
aS'Abel'
p588
aI2
tp589
a(I9
S'Alucard'
(lp590
S'Hugo'
p591
aS'Evil Ryu'
p592
aI2
tp593
a(I13
S'Nice1'
(lp594
S'Guy'
p595
aI1
tp596
a(I13
S'El Chakotay'
(lp597
S'El Fuerte'
p598
aI1
tp599
a(I13
S'German Luger'
(lp600
S'Vega'
p601
aI1
tp602
a(I13
S'Jebailey'
(lp603
S'Balrog'
p604
aS'Ken'
p605
aI1
tp606
aa(lp607
(I1
S'Daigo Umehara'
(lp608
S'Evil Ryu'
p609
aS'Ryu'
p610
aI256
tp611
a(I2
S'Momochi'
(lp612
S'Ken'
p613
aS'Cody'
p614
aI128
tp615
a(I3
S'Infiltration'
(lp616
S'Decapre'
p617
aI64
tp618
a(I4
S'Tokido'
(lp619
S'Akuma'
p620
aI32
tp621
a(I5
S'GamerBee'
(lp622
S'Adon'
p623
aS'Elena'
p624
aI16
tp625
a(I5
S'Poongko'
(lp626
S'Seth'
p627
aS'El Fuerte'
p628
aI16
tp629
a(I7
S'Bonchan'
(lp630
S'Sagat'
p631
aI8
tp632
a(I7
S'Fuudo'
(lp633
S'Fei Long'
p634
aS'Sagat'
p635
aI8
tp636
a(I9
S'Eita'
(lp637
S'Akuma'
p638
aS'Evil Ryu'
p639
aI4
tp640
a(I9
S'Gagapa'
(lp641
S'M.Bison'
p642
aI4
tp643
a(I9
S'Xian'
(lp644
S'Gen'
p645
aS'Elena'
p646
aI4
tp647
a(I9
S'Luffy'
(lp648
S'Rose'
p649
aI4
tp650
a(I13
S'Ryan Hart'
(lp651
S'Sagat'
p652
aI2
tp653
a(I13
S'Mago'
(lp654
S'Yang'
p655
aS'Fei Long'
p656
aI2
tp657
a(I13
S'Kazunoko'
(lp658
S'Yun'
p659
aI2
tp660
a(I13
S'Valmaster'
(lp661
S'Chun-Li'
p662
aI2
tp663
aa(lp664
(I1
S'Luffy'
(lp665
S'Rose'
p666
aI128
tp667
a(I2
S'Poongko'
(lp668
S'Seth'
p669
aI64
tp670
a(I3
S'infexious'
(lp671
S'Hugo'
p672
aI32
tp673
a(I4
S'Tokido'
(lp674
S'Akuma'
p675
aI16
tp676
a(I5
S'Dark Jiewa'
(lp677
S'Ken'
p678
aI8
tp679
a(I5
S'Valmaster'
(lp680
S'Chun-Li'
p681
aI8
tp682
a(I7
S'Demulant'
(lp683
S'Sagat'
p684
aI4
tp685
a(I7
S'Andreas'
(lp686
S'Rufus'
p687
aI4
tp688
a(I9
S'RMZ'
(lp689
S'Yun'
p690
aI2
tp691
a(I9
S'Packz'
(lp692
S'Cody'
p693
aI2
tp694
a(I9
S'Ebi'
(lp695
S'Hakan'
p696
aI2
tp697
a(I9
S'StarNab'
(lp698
S'Fei Long'
p699
aI2
tp700
a(I13
S'Sheva'
(lp701
S'Cody'
p702
aI1
tp703
a(I13
S'Pro Fluke'
(lp704
S'El Fuerte'
p705
aI1
tp706
a(I13
S'emptysys'
(lp707
S'T.Hawk'
p708
aI1
tp709
a(I13
S'Halibel'
(lp710
S'Ken'
p711
aS'Sagat'
p712
aI1
tp713
aa(lp714
(I1
S'Luffy'
(lp715
S'Rose'
p716
aI128
tp717
a(I2
S'Problem X'
(lp718
S'C.Viper'
p719
aS'Seth'
p720
aI64
tp721
a(I3
S'GamerBee'
(lp722
S'Elena'
p723
aS'Adon'
p724
aS'Yun'
p725
aI32
tp726
a(I4
S'Ryan Hart'
(lp727
S'Ryu'
p728
aS'Sagat'
p729
aI16
tp730
a(I5
S'Pro Fluke'
(lp731
S'El Fuerte'
p732
aI8
tp733
a(I5
S'MBR'
(lp734
S'Akuma'
p735
aI8
tp736
a(I7
S'ImStillDaDaddy'
(lp737
S'Guile'
p738
aS'Seth'
p739
aS'M.Bison'
p740
aI4
tp741
a(I7
S'Phenom'
(lp742
S'M.Bison'
p743
aS'Rolento'
p744
aI4
tp745
a(I9
S'Andreas'
(lp746
S'Rufus'
p747
aI2
tp748
a(I9
S'Tyrant'
(lp749
S'M.Bison'
p750
aI2
tp751
a(I9
S'Bashfest'
(lp752
S'Sagat'
p753
aI2
tp754
a(I9
S'RMZ'
(lp755
S'Yun'
p756
aS'Sagat'
p757
aI2
tp758
a(I13
S'SaltyKid'
(lp759
S'Dee Jay'
p760
aI1
tp761
a(I13
S'Duppsko'
(lp762
S'Rufus'
p763
aS'Decapre'
p764
aI1
tp765
a(I13
S'Brillz'
(lp766
S'Dee Jay'
p767
aI1
tp768
a(I13
S'King Funk'
(lp769
S'Rufus'
p770
aS'Zangief'
p771
aI1
tp772
aa(lp773
(I1
S'Mago'
(lp774
S'Yang'
p775
aS'Fei Long'
p776
aI256
tp777
a(I2
S'Tokido'
(lp778
S'Akuma'
p779
aS'Hugo'
p780
aS'Elena'
p781
aI128
tp782
a(I3
S'Xiao Hai'
(lp783
S'Evil Ryu'
p784
aS'Cammy'
p785
aS'Sagat'
p786
aI64
tp787
a(I4
S'Kazunoko'
(lp788
S'Yun'
p789
aI32
tp790
a(I5
S'Daigo Umehara'
(lp791
S'Evil Ryu'
p792
aI16
tp793
a(I5
S'Momochi'
(lp794
S'Ken'
p795
aI16
tp796
a(I7
S'Xian'
(lp797
S'Gen'
p798
aS'Poison'
p799
aI8
tp800
a(I7
S'Infiltration'
(lp801
S'Decapre'
p802
aS'Chun-Li'
p803
aS'Hugo'
p804
aS'Rolento'
p805
aI8
tp806
a(I9
S'GamberBee'
(lp807
S'Adon'
p808
aS'Elena'
p809
aS'Yun'
p810
aI4
tp811
a(I9
S'RB'
(lp812
S'Rolento'
p813
aS'Guy'
p814
aS'Hugo'
p815
aI4
tp816
a(I9
S'Fuudo'
(lp817
S'Fei Long'
p818
aI4
tp819
a(I9
S'Itabashi Zangief'
(lp820
S'Zangief'
p821
aI4
tp822
a(I13
S'Kim1234'
(lp823
S'M.Bison'
p824
aI2
tp825
a(I13
S'QiuQiuKOF'
(lp826
S'Gen'
p827
aI2
tp828
a(I13
S'HumanBomb'
(lp829
S'Sakura'
p830
aI2
tp831
a(I13
S'Shiro'
(lp832
S'Abel'
p833
aI2
tp834
aa(lp835
(I1
S'Kazunoko'
(lp836
S'Yun'
p837
aI256
tp838
a(I2
S'801 Strider'
(lp839
S'Abel'
p840
aI128
tp841
a(I3
S'PR Balrog'
(lp842
S'Balrog'
p843
aI64
tp844
a(I4
S'Smug'
(lp845
S'Dudley'
p846
aI32
tp847
a(I5
S'Dieminion'
(lp848
S'Guile'
p849
aS'Juri'
p850
aI16
tp851
a(I5
S'Mago'
(lp852
S'Yang'
p853
aI16
tp854
a(I7
S'Bonchan'
(lp855
S'Sagat'
p856
aI8
tp857
a(I7
S'Xiao Hai'
(lp858
S'Evil Ryu'
p859
aS'Cammy'
p860
aI8
tp861
a(I9
S'Snake Eyez'
(lp862
S'Zangief'
p863
aI4
tp864
a(I9
S'Tokido'
(lp865
S'Akuma'
p866
aI4
tp867
a(I9
S'NuckleDu'
(lp868
S'Guile'
p869
aS'Decapre'
p870
aI4
tp871
a(I9
S'Infiltration'
(lp872
S'Akuma'
p873
aS'Gouken'
p874
aI4
tp875
a(I13
S'Dakou'
(lp876
S'Evil Ryu'
p877
aS'Yun'
p878
aI2
tp879
a(I13
S'Fuudo'
(lp880
S'Fei Long'
p881
aI2
tp882
a(I13
S'Ricki Ortiz'
(lp883
S'Poison'
p884
aS'Rufus'
p885
aI2
tp886
a(I13
S'Alucard'
(lp887
S'Hugo'
p888
aS'Sagat'
p889
aI2
tp890
aa(lp891
(I1
S'Momochi'
(lp892
S'Ken'
p893
aS'Evil Ryu'
p894
aS'Elena'
p895
aI1024
tp896
a(I2
S'GamerBee'
(lp897
S'Elena'
p898
aS'Adon'
p899
aI512
tp900
a(I3
S'Infiltration'
(lp901
S'Evil Ryu'
p902
aS'Chun-Li'
p903
aS'Abel'
p904
aS'Decapre'
p905
aS'Elena'
p906
aS'Juri'
p907
aI256
tp908
a(I4
S'Nemo'
(lp909
S'Rolento'
p910
aI128
tp911
a(I5
S'AiAi'
(lp912
S'Juri'
p913
aI64
tp914
a(I5
S'Tokido'
(lp915
S'Akuma'
p916
aI64
tp917
a(I7
S'PR Balrog'
(lp918
S'Balrog'
p919
aI32
tp920
a(I7
S'NuckleDu'
(lp921
S'Decapre'
p922
aS'Guile'
p923
aI32
tp924
a(I9
S'Kazunoko'
(lp925
S'Yun'
p926
aI16
tp927
a(I9
S'Santarouman'
(lp928
S'Sagat'
p929
aI16
tp930
a(I9
S'Daigo Umehara'
(lp931
S'Evil Ryu'
p932
aI16
tp933
a(I9
S'Filipinoman'
(lp934
S'Rose'
p935
aS'Poison'
p936
aI16
tp937
a(I13
S'Xiao Hai'
(lp938
S'Cammy'
p939
aS'Evil Ryu'
p940
aS'Yun'
p941
aI8
tp942
a(I13
S'Kindevu'
(lp943
S'Elena'
p944
aI8
tp945
a(I13
S'Snake Eyez'
(lp946
S'Zangief'
p947
aI8
tp948
a(I13
S'Latif'
(lp949
S'C.Viper'
p950
aI8
tp951
aa(lp952
(I1
S'Xian'
(lp953
S'Gen'
p954
aI128
tp955
a(I2
S'Xiao Hai'
(lp956
S'Evil Ryu'
p957
aS'Cammy'
p958
aI64
tp959
a(I3
S'Tokido'
(lp960
S'Akuma'
p961
aI32
tp962
a(I4
S'HumanBomb'
(lp963
S'Sakura'
p964
aI16
tp965
a(I5
S'Dakou'
(lp966
S'Evil Ryu'
p967
aI8
tp968
a(I5
S'QQEL'
(lp969
S'El Fuerte'
p970
aI8
tp971
a(I7
S'KOK'
(lp972
S'Rufus'
p973
aI4
tp974
a(I7
S'Fuudo'
(lp975
S'Fei Long'
p976
aI4
tp977
a(I9
S'God of Sky'
(lp978
S'Vega'
p979
aI2
tp980
a(I9
S'Chengfei'
(lp981
S'Decapre'
p982
aI2
tp983
a(I9
S'AbAb'
(lp984
S'Abel'
p985
aI2
tp986
a(I9
S'Xiaolong'
(lp987
S'M.Bison'
p988
aI2
tp989
a(I13
S'HurtchVR'
(lp990
S'Evil Ryu'
p991
aI1
tp992
a(I13
S'Abang'
(lp993
S'Gouken'
p994
aI1
tp995
a(I13
S'GZ-Ben'
(lp996
S'Fei Long'
p997
aI1
tp998
a(I13
S'Dark Jiewa'
(lp999
S'Ken'
p1000
aI1
tp1001
aa(lp1002
(I1
S'Luffy'
(lp1003
S'Rose'
p1004
aI128
tp1005
a(I2
S'Problem X'
(lp1006
S'C.Viper'
p1007
aS'Seth'
p1008
aI64
tp1009
a(I3
S'Infexious'
(lp1010
S'Hugo'
p1011
aI32
tp1012
a(I4
S'Tyrant'
(lp1013
S'M.Bison'
p1014
aI16
tp1015
a(I5
S'Packz'
(lp1016
S'Cody'
p1017
aI8
tp1018
a(I5
S'F-Word'
(lp1019
S'Ibuki'
p1020
aI8
tp1021
a(I7
S'Solidjin'
(lp1022
S'Vega'
p1023
aI4
tp1024
a(I7
S'Hurricane237'
(lp1025
S'Decapre'
p1026
aI4
tp1027
a(I9
S'GuN SLinGa'
(lp1028
S'Guy'
p1029
aI2
tp1030
a(I9
S'ImStillDaDaddy'
(lp1031
S'Guile'
p1032
aS'Decapre'
p1033
aI2
tp1034
a(I9
S'Afii'
(lp1035
S'Poison'
p1036
aI2
tp1037
a(I9
S'Pro Fluke'
(lp1038
S'El Fuerte'
p1039
aI2
tp1040
a(I13
S'Isam'
(lp1041
S'Abel'
p1042
aI1
tp1043
a(I13
S'Brian'
(lp1044
S'Sakura'
p1045
aS'C.Viper'
p1046
aI1
tp1047
a(I13
S'Fuzzy'
(lp1048
S'Cammy'
p1049
aS'Poison'
p1050
aI1
tp1051
a(I13
S'Ghost'
(lp1052
S'E.Honda'
p1053
aI1
tp1054
aa(lp1055
(I1
S'Bonchan'
(lp1056
S'Sagat'
p1057
aI128
tp1058
a(I2
S'Itabashi Zangief'
(lp1059
S'Zangief'
p1060
aI64
tp1061
a(I3
S'Gackt'
(lp1062
S'Fei Long'
p1063
aS'Sagat'
p1064
aI32
tp1065
a(I4
S'Tonpy'
(lp1066
S'C.Viper'
p1067
aI16
tp1068
a(I5
S'Leslie'
(lp1069
S'Sagat'
p1070
aI8
tp1071
a(I5
S'Koji'
(lp1072
S'Akuma'
p1073
aS'Yun'
p1074
aI8
tp1075
a(I7
S'Gonzales'
(lp1076
S'Seth'
p1077
aI4
tp1078
a(I7
S'Chuan'
(lp1079
S'Guile'
p1080
aI4
tp1081
a(I9
S'RB'
(lp1082
S'Rolento'
p1083
aS'Hugo'
p1084
aS'Guy'
p1085
aI2
tp1086
a(I9
S'Shiro'
(lp1087
S'Abel'
p1088
aI2
tp1089
a(I9
S'Stanick'
(lp1090
S'Cammy'
p1091
aI2
tp1092
a(I9
S'Dark Jiewa'
(lp1093
S'Ken'
p1094
aI2
tp1095
a(I13
S'Stekoh'
(lp1096
S'Abel'
p1097
aI1
tp1098
a(I13
S'Battousai'
(lp1099
S'Elena'
p1100
aI1
tp1101
a(I13
S'Kim1234'
(lp1102
S'M.Bison'
p1103
aI1
tp1104
a(I13
S'HumanBomb'
(lp1105
S'Sakura'
p1106
aS'Poison'
p1107
aI1
tp1108
aa(lp1109
(I1
S'Misse'
(lp1110
S'Makoto'
p1111
aI128
tp1112
a(I2
S'StromKubo'
(lp1113
S'Hugo'
p1114
aI64
tp1115
a(I3
S'Itabashi Zangief (Itazan)'
(lp1116
S'Zangief'
p1117
aI32
tp1118
a(I4
S'Chuan'
(lp1119
S'Guile'
p1120
aS'Fei Long'
p1121
aS'Rose'
p1122
aI16
tp1123
a(I5
S'Dark Jiewa'
(lp1124
S'Ken'
p1125
aI8
tp1126
a(I5
S'Tonpy'
(lp1127
S'C.Viper'
p1128
aI8
tp1129
a(I7
S'Gonzales'
(lp1130
S'Seth'
p1131
aI4
tp1132
a(I7
S'Reiketsu'
(lp1133
S'Poison'
p1134
aS'Vega'
p1135
aI4
tp1136
a(I9
S'KOK'
(lp1137
S'Sagat'
p1138
aI2
tp1139
a(I9
S'Onikiri Kai'
(lp1140
S'Balrog'
p1141
aI2
tp1142
a(I9
S'Sketch'
(lp1143
S'Rolento'
p1144
aI2
tp1145
a(I9
S'Shiro'
(lp1146
S'Abel'
p1147
aI2
tp1148
a(I13
S'CodyNP'
(lp1149
S'Chun-Li'
p1150
aI1
tp1151
a(I13
S'Inco'
(lp1152
S'Rufus'
p1153
aI1
tp1154
a(I13
S'SASA'
(lp1155
S'Vega'
p1156
aI1
tp1157
a(I13
S'KIM1234'
(lp1158
S'M.Bison'
p1159
aI1
tp1160
aa(lp1161
(I1
S'Dieminion'
(lp1162
S'Guile'
p1163
aI128
tp1164
a(I2
S'Snake Eyez'
(lp1165
S'Zangief'
p1166
aS'Evil Ryu'
p1167
aI64
tp1168
a(I3
S'Phenom'
(lp1169
S'C.Viper'
p1170
aI32
tp1171
a(I4
S'Problem X'
(lp1172
S'C.Viper'
p1173
aI16
tp1174
a(I5
S'Joel'
(lp1175
S'Ryu'
p1176
aI8
tp1177
a(I5
S'K-Brad'
(lp1178
S'Cammy'
p1179
aI8
tp1180
a(I7
S'Zaferino'
(lp1181
S'Fei Long'
p1182
aI4
tp1183
a(I7
S'Julio'
(lp1184
S'Yun'
p1185
aI4
tp1186
a(I9
S'801Strider'
(lp1187
S'Abel'
p1188
aI2
tp1189
a(I9
S'ElChakotay'
(lp1190
S'El Fuerte'
p1191
aI2
tp1192
a(I9
S'Brenttiscool'
(lp1193
S'Rufus'
p1194
aI2
tp1195
a(I9
S'DarkChild'
(lp1196
S'Balrog'
p1197
aS'Rufus'
p1198
aI2
tp1199
a(I13
S'Alucard'
(lp1200
S'Sagat'
p1201
aS'Hugo'
p1202
aI1
tp1203
a(I13
S'NuckleDu'
(lp1204
S'Guile'
p1205
aS'Decapre'
p1206
aI1
tp1207
a(I13
S'NYChrisG'
(lp1208
S'Sakura'
p1209
aI1
tp1210
a(I13
S'Velociraptor'
(lp1211
S'Gouken'
p1212
aS'Evil Ryu'
p1213
aI1
tp1214
aa(lp1215
(I1
S'Infiltration'
(lp1216
S'Decapre'
p1217
aS'Ryu'
p1218
aI128
tp1219
a(I2
S'MOV'
(lp1220
S'Ibuki'
p1221
aS'M.Bison'
p1222
aI64
tp1223
a(I3
S'Tonpy'
(lp1224
S'C.Viper'
p1225
aI32
tp1226
a(I4
S'Dark Jiewa'
(lp1227
S'Ken'
p1228
aI16
tp1229
a(I5
S'HumanBomb'
(lp1230
S'Sakura'
p1231
aI8
tp1232
a(I5
S'Misse'
(lp1233
S'Makoto'
p1234
aI8
tp1235
a(I7
S'Xiao Hai'
(lp1236
S'Evil Ryu'
p1237
aS'Cammy'
p1238
aI4
tp1239
a(I7
S'Shiro'
(lp1240
S'Abel'
p1241
aI4
tp1242
a(I9
S'Dakou'
(lp1243
S'Evil Ryu'
p1244
aI2
tp1245
a(I9
S'Chuan'
(lp1246
S'Guile'
p1247
aS'M.Bison'
p1248
aS'Rose'
p1249
aS'Fei Long'
p1250
aI2
tp1251
a(I9
S'CodyNP'
(lp1252
S'Decapre'
p1253
aS'Hugo'
p1254
aS'Chun-Li'
p1255
aI2
tp1256
a(I9
S'Gonzales'
(lp1257
S'Seth'
p1258
aI2
tp1259
a(I13
S'Baoice'
(lp1260
S'Ibuki'
p1261
aI1
tp1262
a(I13
S'RB'
(lp1263
S'Rolento'
p1264
aS'Hugo'
p1265
aS'Guy'
p1266
aI1
tp1267
a(I13
S'Ahbao'
(lp1268
S'Evil Ryu'
p1269
aI1
tp1270
a(I13
S'KOK'
(lp1271
S'Evil Ryu'
p1272
aI1
tp1273
aa(lp1274
(I1
S'Tonpy'
(lp1275
S'C.Viper'
p1276
aI128
tp1277
a(I2
S'HumanBomb'
(lp1278
S'Sakura'
p1279
aI64
tp1280
a(I3
S'Nishikin'
(lp1281
S'Blanka'
p1282
aI32
tp1283
a(I4
S'Reiketsu'
(lp1284
S'Poison'
p1285
aI16
tp1286
a(I5
S'Dark Jiewa'
(lp1287
S'Ken'
p1288
aI8
tp1289
a(I5
S'Itabashi Zangief (Itazan)'
(lp1290
S'Zangief'
p1291
aI8
tp1292
a(I7
S'StormKUBO'
(lp1293
S'Hugo'
p1294
aI4
tp1295
a(I7
S'God of Sky'
(lp1296
S'Elena'
p1297
aI4
tp1298
a(I9
S'Dru'
(lp1299
S'Chun-Li'
p1300
aS'Decapre'
p1301
aI2
tp1302
a(I9
S'Kim1234'
(lp1303
S'M.Bison'
p1304
aI2
tp1305
a(I9
S'Keno'
(lp1306
S'Elena'
p1307
aI2
tp1308
a(I9
S'Gonzalez'
(lp1309
S'Seth'
p1310
aI2
tp1311
a(I13
S'Garret'
(lp1312
S'Makoto'
p1313
aI1
tp1314
a(I13
S'Ikatsui Yarou'
(lp1315
S'Zangief'
p1316
aI1
tp1317
a(I13
S'James'
(lp1318
S'Balrog'
p1319
aI1
tp1320
a(I13
S'Chuan'
(lp1321
S'Guile'
p1322
aI1
tp1323
aa(lp1324
(I1
S'Infiltration'
(lp1325
S'Decapre'
p1326
aS'Hugo'
p1327
aI128
tp1328
a(I2
S'Snake Eyez'
(lp1329
S'Zangief'
p1330
aI64
tp1331
a(I3
S'Pugera'
(lp1332
S'Ibuki'
p1333
aI32
tp1334
a(I4
S'801Strider'
(lp1335
S'Abel'
p1336
aI16
tp1337
a(I5
S'K-Brad'
(lp1338
S'Cammy'
p1339
aS'Chun-Li'
p1340
aI8
tp1341
a(I5
S'NYChrisG'
(lp1342
S'Sakura'
p1343
aI8
tp1344
a(I7
S'DR Ray'
(lp1345
S'Fei Long'
p1346
aI4
tp1347
a(I7
S'Huracan Azura'
(lp1348
S'T.Hawk'
p1349
aI4
tp1350
a(I9
S'Kreymore'
(lp1351
S'Juri'
p1352
aS'Guy'
p1353
aI2
tp1354
a(I9
S'Cocaneta'
(lp1355
S'Rolento'
p1356
aI2
tp1357
a(I9
S'NuckleDu'
(lp1358
S'Decapre'
p1359
aS'Guile'
p1360
aI2
tp1361
a(I9
S'Gorcrx'
(lp1362
S'Ken'
p1363
aI2
tp1364
a(I13
S'Haizek'
(lp1365
S'Decapre'
p1366
aI1
tp1367
a(I13
S'Ranmasama'
(lp1368
S'Decapre'
p1369
aI1
tp1370
a(I13
S'Famous'
(lp1371
S'El Fuerte'
p1372
aI1
tp1373
a(I13
S'Javits'
(lp1374
S'Balrog'
p1375
aI1
tp1376
aa(lp1377
(I1
S'Snake Eyez'
(lp1378
S'Zangief'
p1379
aI128
tp1380
a(I2
S'Dieminion'
(lp1381
S'Guile'
p1382
aI64
tp1383
a(I3
S'Tampa Bison'
(lp1384
S'M.Bison'
p1385
aI32
tp1386
a(I4
S'Ricki Ortiz'
(lp1387
S'Elena'
p1388
aS'Rufus'
p1389
aS'Chun-Li'
p1390
aI16
tp1391
a(I5
S'Brenttiscool'
(lp1392
S'Rufus'
p1393
aI8
tp1394
a(I5
S'801Strider'
(lp1395
S'Abel'
p1396
aI8
tp1397
a(I7
S'K-Brad'
(lp1398
S'Cammy'
p1399
aI4
tp1400
a(I7
S'Smug'
(lp1401
S'Dudley'
p1402
aI4
tp1403
a(I9
S'Alex Valle'
(lp1404
S'Hugo'
p1405
aI2
tp1406
a(I9
S'NuckleDu'
(lp1407
S'Guile'
p1408
aS'Decapre'
p1409
aI2
tp1410
a(I9
S'NYChrisG'
(lp1411
S'Sakura'
p1412
aI2
tp1413
a(I9
S'Flocker'
(lp1414
S'Cammy'
p1415
aI2
tp1416
a(I13
S'Damdai'
(lp1417
S'Decapre'
p1418
aI1
tp1419
a(I13
S'Shin Phoenix'
(lp1420
S'Vega'
p1421
aI1
tp1422
a(I13
S'Alucard'
(lp1423
S'Hugo'
p1424
aI1
tp1425
a(I13
S'Joel'
(lp1426
S'Ryu'
p1427
aI1
tp1428
aa(lp1429
(I1
S'Xiao Hai'
(lp1430
S'Evil Ryu'
p1431
aS'Cammy'
p1432
aS'Sagat'
p1433
aI128
tp1434
a(I2
S'Gackt'
(lp1435
S'Fei Long'
p1436
aS'Ryu'
p1437
aI64
tp1438
a(I3
S'Dark Jiewa'
(lp1439
S'Ken'
p1440
aI32
tp1441
a(I4
S'Tonpy'
(lp1442
S'C.Viper'
p1443
aI16
tp1444
a(I5
S'Gonzales'
(lp1445
S'Seth'
p1446
aI8
tp1447
a(I5
S'HumanBomb'
(lp1448
S'Sakura'
p1449
aI8
tp1450
a(I7
S'Shiro'
(lp1451
S'Abel'
p1452
aI4
tp1453
a(I7
S'KOK'
(lp1454
S'Sagat'
p1455
aI4
tp1456
a(I9
S'Chuan'
(lp1457
S'Guile'
p1458
aI2
tp1459
a(I9
S'Stanick'
(lp1460
S'Cammy'
p1461
aI2
tp1462
a(I9
S'Itabashi Zangief (Itazan)'
(lp1463
S'Zangief'
p1464
aI2
tp1465
a(I9
S'God of Sky'
(lp1466
S'Vega'
p1467
aS'Elena'
p1468
aS'Decapre'
p1469
aI2
tp1470
a(I13
S'Shaun'
(lp1471
S'Guy'
p1472
aI1
tp1473
a(I13
S'UltraBram'
(lp1474
S'Rolento'
p1475
aI1
tp1476
a(I13
S'CK-VNZ'
(lp1477
S'Evil Ryu'
p1478
aS'Ibuki'
p1479
aI1
tp1480
a(I13
S'Tuan Mario'
(lp1481
S'Adon'
p1482
aI1
tp1483
aa(lp1484
(I1
S'Dashio'
(lp1485
S'Seth'
p1486
aI256
tp1487
a(I2
S'Bonchan'
(lp1488
S'Sagat'
p1489
aI128
tp1490
a(I3
S'Infiltration'
(lp1491
S'Decapre'
p1492
aS'Akuma'
p1493
aS'Gouken'
p1494
aI64
tp1495
a(I4
S'Nemo'
(lp1496
S'Rolento'
p1497
aS'Decapre'
p1498
aI32
tp1499
a(I5
S'GamerBee'
(lp1500
S'Adon'
p1501
aS'Elena'
p1502
aI16
tp1503
a(I5
S'Mago'
(lp1504
S'Yang'
p1505
aI16
tp1506
a(I7
S'Kawaguchi'
(lp1507
S'Rose'
p1508
aI8
tp1509
a(I7
S'-6'
(lp1510
S'Poison'
p1511
aI8
tp1512
a(I9
S'AiAi'
(lp1513
S'Juri'
p1514
aI4
tp1515
a(I9
S'Shimauta'
(lp1516
S'Ibuki'
p1517
aI4
tp1518
a(I9
S'KojiKOG'
(lp1519
S'T.Hawk'
p1520
aI4
tp1521
a(I9
S'Fuudo'
(lp1522
S'Fei Long'
p1523
aI4
tp1524
a(I13
S'Akimo'
(lp1525
S'Elena'
p1526
aI2
tp1527
a(I13
S'Twiggy'
(lp1528
S'T.Hawk'
p1529
aI2
tp1530
a(I13
S'Kazunoko'
(lp1531
S'Yun'
p1532
aI2
tp1533
a(I13
S'MF Tonpy'
(lp1534
S'C.Viper'
p1535
aI2
tp1536
aa(lp1537
(I1
S'Xian'
(lp1538
S'Gen'
p1539
aS'Sagat'
p1540
aI256
tp1541
a(I2
S'Fuudo'
(lp1542
S'Fei Long'
p1543
aS'Seth'
p1544
aI128
tp1545
a(I3
S'Latif'
(lp1546
S'C.Viper'
p1547
aI64
tp1548
a(I4
S'Itabashi Zangief (Itazan)'
(lp1549
S'Zangief'
p1550
aI32
tp1551
a(I5
S'R'
(lp1552
S'Balrog'
p1553
aI16
tp1554
a(I5
S'Gannoon'
(lp1555
S'Sakura'
p1556
aI16
tp1557
a(I7
S'Ryan Hart (Prodigal Son)'
(lp1558
S'Sagat'
p1559
aS'Ryu'
p1560
aS'Yun'
p1561
aI8
tp1562
a(I7
S'Nox2'
(lp1563
S'Guy'
p1564
aS'Rolento'
p1565
aS'Sagat'
p1566
aI8
tp1567
a(I9
S'Santarouman'
(lp1568
S'Sagat'
p1569
aI4
tp1570
a(I9
S'Dudebag'
(lp1571
S'Ken'
p1572
aI4
tp1573
a(I9
S'KichijoujiKen'
(lp1574
S'Ken'
p1575
aI4
tp1576
a(I9
S'Akimo'
(lp1577
S'Elena'
p1578
aI4
tp1579
a(I13
S'Hunter'
(lp1580
S'Sagat'
p1581
aI2
tp1582
a(I13
S'Akira'
(lp1583
S'C.Viper'
p1584
aS'Rolento'
p1585
aI2
tp1586
a(I13
S'Dashio'
(lp1587
S'Seth'
p1588
aI2
tp1589
a(I13
S'EvilYoshi'
(lp1590
S'Evil Ryu'
p1591
aS'Yun'
p1592
aS'Rolento'
p1593
aI2
tp1594
aa(lp1595
(I1
S'Luffy'
(lp1596
S'Rose'
p1597
aI128
tp1598
a(I2
S'Valmaster'
(lp1599
S'Chun-Li'
p1600
aI64
tp1601
a(I3
S'Ryan Hart'
(lp1602
S'Sagat'
p1603
aS'Evil Ryu'
p1604
aI32
tp1605
a(I4
S'Deku Andreas'
(lp1606
S'Rufus'
p1607
aI16
tp1608
a(I5
S'Gonzales'
(lp1609
S'Seth'
p1610
aI8
tp1611
a(I5
S'Problem X'
(lp1612
S'Seth'
p1613
aS'Zangief'
p1614
aI8
tp1615
a(I7
S'Flawless Deku'
(lp1616
S'Fei Long'
p1617
aI4
tp1618
a(I7
S'Afii'
(lp1619
S'Poison'
p1620
aI4
tp1621
a(I9
S'Hurricane237'
(lp1622
S'Decapre'
p1623
aI2
tp1624
a(I9
S'Tyrant'
(lp1625
S'M.Bison'
p1626
aI2
tp1627
a(I9
S'Pro Fluke'
(lp1628
S'El Fuerte'
p1629
aI2
tp1630
a(I9
S'Ninja Shakz'
(lp1631
S'Abel'
p1632
aI2
tp1633
a(I13
S'Phenom'
(lp1634
S'M.Bison'
p1635
aI1
tp1636
a(I13
S'Gunslinga'
(lp1637
S'Guy'
p1638
aI1
tp1639
a(I13
S'Will2Pac'
(lp1640
S'C.Viper'
p1641
aI1
tp1642
a(I13
S'ImStillDaDaddy'
(lp1643
S'Guile'
p1644
aI1
tp1645
aa(lp1646
(I1
S'Shiro (Shirou)'
(lp1647
S'Abel'
p1648
aI128
tp1649
a(I2
S'Gonzales'
(lp1650
S'Seth'
p1651
aI64
tp1652
a(I3
S'Phenom'
(lp1653
S'M.Bison'
p1654
aI32
tp1655
a(I4
S'Problem X'
(lp1656
S'Seth'
p1657
aS'C.Viper'
p1658
aS'Dhalsim'
p1659
aI16
tp1660
a(I5
S'Veggey'
(lp1661
S'Zangief'
p1662
aS'Fei Long'
p1663
aI8
tp1664
a(I5
S'Pro Fluke'
(lp1665
S'El Fuerte'
p1666
aI8
tp1667
a(I7
S'ThunderBear'
(lp1668
S'Cody'
p1669
aI4
tp1670
a(I7
S'Packz'
(lp1671
S'Cody'
p1672
aI4
tp1673
a(I9
S'BliRedd'
(lp1674
S'Rose'
p1675
aI2
tp1676
a(I9
S'Rosso'
(lp1677
S'Ryu'
p1678
aS'Abel'
p1679
aS'Guile'
p1680
aI2
tp1681
a(I9
S'Pedram'
(lp1682
S'Ryu'
p1683
aI2
tp1684
a(I9
S'Bashfest '
(lp1685
S'Sagat'
p1686
aI2
tp1687
a(I13
S'Badi Lootion'
(lp1688
g1683
aI1
tp1689
a(I13
S'Leffen'
(lp1690
S'Yun'
p1691
aS'Evil Ryu'
p1692
aI1
tp1693
a(I13
S'Eunbeen'
(lp1694
g1683
aI1
tp1695
a(I13
S'Duppsko'
(lp1696
S'Decapre'
p1697
aI1
tp1698
aa(lp1699
(I1
S'Luffy'
(lp1700
S'Rose'
p1701
aI128
tp1702
a(I2
S'Valmaster'
(lp1703
S'Chun-Li'
p1704
aI64
tp1705
a(I3
S'K-Brad'
(lp1706
S'Cammy'
p1707
aI32
tp1708
a(I4
S'MBR'
(lp1709
S'Akuma'
p1710
aI16
tp1711
a(I5
S'Gagapa'
(lp1712
S'M.Bison'
p1713
aI8
tp1714
a(I5
S'Phenom'
(lp1715
S'M.Bison'
p1716
aI8
tp1717
a(I7
S'Packz'
(lp1718
S'Cody'
p1719
aI4
tp1720
a(I7
S'Gonzales'
(lp1721
S'Seth'
p1722
aI4
tp1723
a(I9
S'Deku Andreas'
(lp1724
S'Rufus'
p1725
aI2
tp1726
a(I9
S'Problem X'
(lp1727
S'C.Viper'
p1728
aS'Seth'
p1729
aS'Makoto'
p1730
aI2
tp1731
a(I9
S'Ryan Hart'
(lp1732
S'Sagat'
p1733
aI2
tp1734
a(I9
S'Afii'
(lp1735
S'Poison'
p1736
aI2
tp1737
a(I13
S'Demulant'
(lp1738
S'Sagat'
p1739
aI1
tp1740
a(I13
S'Will2Pac'
(lp1741
S'C.Viper'
p1742
aI1
tp1743
a(I13
S'Cuongster'
(lp1744
S'Yun'
p1745
aI1
tp1746
a(I13
S'Emersion'
(lp1747
S'Vega'
p1748
aI1
tp1749
aa(lp1750
(I1
S'Dakou'
(lp1751
S'Evil Ryu'
p1752
aI128
tp1753
a(I2
S'Gackt'
(lp1754
S'Fei Long'
p1755
aS'Ryu'
p1756
aS'Sagat'
p1757
aI64
tp1758
a(I3
S'HumanBomb'
(lp1759
S'Sakura'
p1760
aI32
tp1761
a(I4
S'Xiao Hai'
(lp1762
S'Evil Ryu'
p1763
aS'Elena'
p1764
aI16
tp1765
a(I5
S'Fuudo'
(lp1766
S'Fei Long'
p1767
aI8
tp1768
a(I5
S'Xiaohu'
(lp1769
S'Rose'
p1770
aI8
tp1771
a(I7
S'God of Sky'
(lp1772
S'Vega'
p1773
aS'Elena'
p1774
aS'Decapre'
p1775
aS'Hakan'
p1776
aI4
tp1777
a(I7
S'Itabashi Zangief (Itazan)'
(lp1778
S'Zangief'
p1779
aI4
tp1780
a(I9
S'StormKUBO'
(lp1781
S'Hugo'
p1782
aI2
tp1783
a(I9
S'Tonpy'
(lp1784
S'C.Viper'
p1785
aI2
tp1786
a(I9
S'Dark Jiewa'
(lp1787
S'Ken'
p1788
aI2
tp1789
a(I9
S'KOK'
(lp1790
S'Sagat'
p1791
aI2
tp1792
a(I13
S'RMZ'
(lp1793
S'Yun'
p1794
aS'Sagat'
p1795
aI1
tp1796
a(I13
S'Shiro'
(lp1797
S'Abel'
p1798
aI1
tp1799
a(I13
S'Tian Sia Ren'
(lp1800
S'Cammy'
p1801
aI1
tp1802
a(I13
S'Meishan Quanwang'
(lp1803
S'Adon'
p1804
aI1
tp1805
aa(lp1806
(I1
S'Bonchan'
(lp1807
S'Sagat'
p1808
aI256
tp1809
a(I2
S'Kazunoko'
(lp1810
S'Yun'
p1811
aI128
tp1812
a(I3
S'Xiao Hai'
(lp1813
S'Evil Ryu'
p1814
aS'Cammy'
p1815
aS'Sagat'
p1816
aI64
tp1817
a(I4
S'Filipinoman'
(lp1818
S'Rose'
p1819
aI32
tp1820
a(I5
S'Reiketsu'
(lp1821
S'Vega'
p1822
aS'Poison'
p1823
aS'Ibuki'
p1824
aI16
tp1825
a(I5
S'SnakeEyez'
(lp1826
S'Zangief'
p1827
aS'Evil Ryu'
p1828
aI16
tp1829
a(I7
S'Alucard'
(lp1830
S'Hugo'
p1831
aS'Sagat'
p1832
aI8
tp1833
a(I7
S'Pnoy'
(lp1834
S'M.Bison'
p1835
aS'Adon'
p1836
aI8
tp1837
a(I9
S'EightGrade'
(lp1838
S'Akuma'
p1839
aI4
tp1840
a(I9
S'LPN'
(lp1841
S'Rolento'
p1842
aS'Adon'
p1843
aS'Abel'
p1844
aI4
tp1845
a(I9
S'Dieminion'
(lp1846
S'Guile'
p1847
aI4
tp1848
a(I9
S'Nando Tovar'
(lp1849
S'El Fuerte'
p1850
aI4
tp1851
a(I13
S'Momochi'
(lp1852
S'Evil Ryu'
p1853
aS'Guy'
p1854
aI2
tp1855
a(I13
S'Jayce the Ace'
(lp1856
S'C.Viper'
p1857
aS'Decapre'
p1858
aI2
tp1859
a(I13
S'PR Balrog'
(lp1860
S'Balrog'
p1861
aS'Fei Long'
p1862
aI2
tp1863
a(I13
S'Hsien Chang'
(lp1864
S'Yun'
p1865
aI2
tp1866
aa(lp1867
(I1
S'Keoma'
(lp1868
S'Abel'
p1869
aI256
tp1870
a(I2
S'Haitani'
(lp1871
S'Makoto'
p1872
aS'Rufus'
p1873
aI128
tp1874
a(I3
S'Ibukiman'
(lp1875
S'Ibuki'
p1876
aS'Oni'
p1877
aS'Juri'
p1878
aI64
tp1879
a(I4
S'ChuChu'
(lp1880
S'C.Viper'
p1881
aS'Sakura'
p1882
aS'Poison'
p1883
aI32
tp1884
a(I5
S'XR Prometo'
(lp1885
S'Balrog'
p1886
aI16
tp1887
a(I5
S'Pr3da'
(lp1888
S'Rolento'
p1889
aS'Elena'
p1890
aI16
tp1891
a(I7
S'Caju'
(lp1892
S'Hakan'
p1893
aI8
tp1894
a(I7
S'Guiller BR'
(lp1895
S'Guile'
p1896
aI8
tp1897
a(I9
S'Alexandro'
(lp1898
S'Ken'
p1899
aI4
tp1900
a(I9
S'Pepeday'
(lp1901
S'El Fuerte'
p1902
aI4
tp1903
a(I9
S'CamizaKOF'
(lp1904
S'Hugo'
p1905
aS'Sagat'
p1906
aS'T.Hawk'
p1907
aI4
tp1908
a(I9
S'Baby Brasil'
(lp1909
S'Rufus'
p1910
aI4
tp1911
a(I13
S'Dark817'
(lp1912
S'Abel'
p1913
aI2
tp1914
a(I13
S'Fabinho'
(lp1915
S'Zangief'
p1916
aI2
tp1917
a(I13
S'Xitao'
(lp1918
S'Adon'
p1919
aI2
tp1920
a(I13
S'Jacare'
(lp1921
S'Cammy'
p1922
aS'Rufus'
p1923
aI2
tp1924
aa(lp1925
(I1
S'Bonchan'
(lp1926
S'Sagat'
p1927
aI256
tp1928
a(I2
S'Nemo'
(lp1929
S'Rolento'
p1930
aI128
tp1931
a(I3
S'Rokkun'
(lp1932
S'Seth'
p1933
aI64
tp1934
a(I4
S'KitasenjuDJ'
(lp1935
S'Dee Jay'
p1936
aI32
tp1937
a(I5
S'Inco'
(lp1938
S'Rufus'
p1939
aI16
tp1940
a(I5
S'Shinba'
(lp1941
S'Abel'
p1942
aI16
tp1943
a(I7
S'Dunhill'
(lp1944
S'Sakura'
p1945
aI8
tp1946
a(I7
S'Momochi'
(lp1947
S'Ken'
p1948
aI8
tp1949
a(I9
S'Nishikin'
(lp1950
S'Blanka'
p1951
aI4
tp1952
a(I9
S'Yossan'
(lp1953
S'Juri'
p1954
aI4
tp1955
a(I9
S'-6'
(lp1956
S'Poison'
p1957
aI4
tp1958
a(I9
S'Fuudo'
(lp1959
S'Fei Long'
p1960
aI4
tp1961
a(I13
S'StormKUBO'
(lp1962
S'Hugo'
p1963
aI2
tp1964
a(I13
S'EX Pugera'
(lp1965
S'Dudley'
p1966
aS'Gen'
p1967
aI2
tp1968
a(I13
S'MDR'
(lp1969
S'Rufus'
p1970
aI2
tp1971
a(I13
S'KOK'
(lp1972
S'Evil Ryu'
p1973
aI2
tp1974
aa(lp1975
(I1
S'Fuudo'
(lp1976
S'Fei Long'
p1977
aS'Seth'
p1978
aI256
tp1979
a(I2
S'Xian'
(lp1980
S'Gen'
p1981
aS'Elena'
p1982
aS'Poison'
p1983
aI128
tp1984
a(I3
S'RB'
(lp1985
S'Rolento'
p1986
aI64
tp1987
a(I4
S'Ryan Hart (Prodigal Son)'
(lp1988
S'Sagat'
p1989
aS'Abel'
p1990
aS'Evil Ryu'
p1991
aS'Yun'
p1992
aI32
tp1993
a(I5
S'Luffy'
(lp1994
S'Rose'
p1995
aI16
tp1996
a(I5
S'Gonzales'
(lp1997
S'Seth'
p1998
aI16
tp1999
a(I7
S'Eita'
(lp2000
S'Akuma'
p2001
aI8
tp2002
a(I7
S'K-Brad'
(lp2003
S'Cammy'
p2004
aI8
tp2005
a(I9
S'Reiketsu'
(lp2006
S'Vega'
p2007
aI4
tp2008
a(I9
S'Shiro (Shirou)'
(lp2009
S'Abel'
p2010
aI4
tp2011
a(I9
S'Pro Fluke'
(lp2012
S'El Fuerte'
p2013
aI4
tp2014
a(I9
S'Tonpy'
(lp2015
S'C.Viper'
p2016
aI4
tp2017
a(I13
S'Haitani'
(lp2018
S'Makoto'
p2019
aI2
tp2020
a(I13
S'Valmaster'
(lp2021
S'Chun-Li'
p2022
aI2
tp2023
a(I13
S'Phenom'
(lp2024
S'M.Bison'
p2025
aI2
tp2026
a(I13
S'Kindevu'
(lp2027
S'Akuma'
p2028
aS'Elena'
p2029
aS'Seth'
p2030
aI2
tp2031
aa(lp2032
(I1
S'Justin Wong'
(lp2033
S'Elena'
p2034
aS'Rose'
p2035
aS'Rufus'
p2036
aI128
tp2037
a(I2
S'Snake Eyez'
(lp2038
S'Zangief'
p2039
aI64
tp2040
a(I3
S'NuckleDu'
(lp2041
S'Decapre'
p2042
aS'Guile'
p2043
aS'Akuma'
p2044
aI32
tp2045
a(I4
S'Shine'
(lp2046
S'Yang'
p2047
aS'Gouken'
p2048
aI16
tp2049
a(I5
S'Smug'
(lp2050
S'Dudley'
p2051
aI8
tp2052
a(I5
S'Riceata'
(lp2053
S'Blanka'
p2054
aI8
tp2055
a(I7
S'Dieminion'
(lp2056
S'Guile'
p2057
aI4
tp2058
a(I7
S'Zaferino'
(lp2059
S'Fei Long'
p2060
aS'Chun-Li'
p2061
aI4
tp2062
a(I9
S'CrazySalvi'
(lp2063
S'Rose'
p2064
aI2
tp2065
a(I9
S'Problem X'
(lp2066
S'C.Viper'
p2067
aI2
tp2068
a(I9
S'NativeImpact'
(lp2069
S'T.Hawk'
p2070
aI2
tp2071
a(I9
S'BobbyBlunts'
(lp2072
S'Seth'
p2073
aI2
tp2074
a(I13
S'RLBS'
(lp2075
S'Guy'
p2076
aI1
tp2077
a(I13
S'Integra'
(lp2078
S'Ken'
p2079
aI1
tp2080
a(I13
S'Sanford Kelly'
(lp2081
S'Oni'
p2082
aI1
tp2083
a(I13
S'Joel'
(lp2084
S'Ryu'
p2085
aI1
tp2086
aa(lp2087
(I1
S'Itabashi Zangief (Itazan)'
(lp2088
S'Zangief'
p2089
aI128
tp2090
a(I2
S'801Strider'
(lp2091
S'Abel'
p2092
aI64
tp2093
a(I3
S'PR Balrog'
(lp2094
S'Balrog'
p2095
aS'Evil Ryu'
p2096
aI32
tp2097
a(I4
S'Doomsday 507'
(lp2098
S'Dudley'
p2099
aS'Cody'
p2100
aI16
tp2101
a(I5
S'Bebedero'
(lp2102
S'Zangief'
p2103
aS'Ibuki'
p2104
aI8
tp2105
a(I5
S'Kakaroto'
(lp2106
S'Ryu'
p2107
aS'Evil Ryu'
p2108
aS'Yun'
p2109
aI8
tp2110
a(I7
S'Gabo'
(lp2111
S'C.Viper'
p2112
aI4
tp2113
a(I7
S'Doomed'
(lp2114
S'Decapre'
p2115
aI4
tp2116
a(I9
S'Andy'
(lp2117
S'Evil Ryu'
p2118
aS'Yun'
p2119
aI2
tp2120
a(I9
S'Berzack'
(lp2121
S'Cody'
p2122
aS'Rose'
p2123
aI2
tp2124
a(I9
S'Nano'
(lp2125
S'Balrog'
p2126
aS'Abel'
p2127
aI2
tp2128
a(I9
S'Ars'
(lp2129
S'Dhalsim'
p2130
aS'Guy'
p2131
aI2
tp2132
a(I13
S'Kike'
(lp2133
S'Abel'
p2134
aS'Vega'
p2135
aI1
tp2136
a(I13
S'Kenji'
(lp2137
S'Evil Ryu'
p2138
aS'Rolento'
p2139
aI1
tp2140
a(I13
S'BS Ioros'
(lp2141
S'Fei Long'
p2142
aS'M.Bison'
p2143
aI1
tp2144
a(I13
S'Goj1980'
(lp2145
S'Blanka'
p2146
aI1
tp2147
aa(lp2148
(I1
S'Tokido'
(lp2149
S'Akuma'
p2150
aI256
tp2151
a(I2
S'Fuudo'
(lp2152
S'Fei Long'
p2153
aS'Seth'
p2154
aI128
tp2155
a(I3
S'Momochi'
(lp2156
S'Ken'
p2157
aS'Guy'
p2158
aS'Evil Ryu'
p2159
aI64
tp2160
a(I4
S'GamerBee'
(lp2161
S'Elena'
p2162
aS'Adon'
p2163
aI32
tp2164
a(I5
S'Snake Eyez'
(lp2165
S'Zangief'
p2166
aI16
tp2167
a(I5
S'Itabashi Zangief (Itazan)'
(lp2168
S'Zangief'
p2169
aI16
tp2170
a(I7
S'Mago'
(lp2171
S'Fei Long'
p2172
aS'Yang'
p2173
aI8
tp2174
a(I7
S'801 Jayce the Ace'
(lp2175
S'Decapre'
p2176
aS'C.Viper'
p2177
aI8
tp2178
a(I9
S'Kazunoko'
(lp2179
S'Yun'
p2180
aI4
tp2181
a(I9
S'Justin Wong'
(lp2182
S'Elena'
p2183
aI4
tp2184
a(I9
S'Misse'
(lp2185
S'Makoto'
p2186
aI4
tp2187
a(I9
S'Bonchan'
(lp2188
S'Sagat'
p2189
aI4
tp2190
a(I13
S'Xian'
(lp2191
S'Gen'
p2192
aI2
tp2193
a(I13
S'MOV'
(lp2194
S'Ibuki'
p2195
aI2
tp2196
a(I13
S'Ricki Ortiz'
(lp2197
S'Elena'
p2198
aS'Rolento'
p2199
aI2
tp2200
a(I13
S'Air'
(lp2201
S'Poison'
p2202
aI2
tp2203
aa.