(lp1
S'Abel'
p2
aS'Adon'
p3
aS'Akuma'
p4
aS'Balrog'
p5
aS'Blanka'
p6
aS'C.Viper'
p7
aS'Cammy'
p8
aS'Chun-Li'
p9
aS'Cody'
p10
aS'Dan'
p11
aS'Decapre'
p12
aS'Dee Jay'
p13
aS'Dhalsim'
p14
aS'Dudley'
p15
aS'E.Honda'
p16
aS'El Fuerte'
p17
aS'Elena'
p18
aS'Evil Ryu'
p19
aS'Fei Long'
p20
aS'Gen'
p21
aS'Gouken'
p22
aS'Guile'
p23
aS'Guy'
p24
aS'Hakan'
p25
aS'Hugo'
p26
aS'Ibuki'
p27
aS'Juri'
p28
aS'Ken'
p29
aS'M.Bison'
p30
aS'Makoto'
p31
aS'Oni'
p32
aS'Poison'
p33
aS'Rolento'
p34
aS'Rose'
p35
aS'Rufus'
p36
aS'Ryu'
p37
aS'Sagat'
p38
aS'Sakura'
p39
aS'Seth'
p40
aS'T.Hawk'
p41
aS'Vega'
p42
aS'Yang'
p43
aS'Yun'
p44
aS'Zangief'
p45
a.