ccollections
Counter
p1
((dp2
S'Makoto'
p3
I10
sS'Hakan'
p4
I4
sS'Rose'
p5
I25
sS'Cammy'
p6
I23
sS'Hugo'
p7
I20
sS'Dudley'
p8
I8
sS'Poison'
p9
I24
sS'Sakura'
p10
I18
sS'M.Bison'
p11
I29
sS'Ryu'
p12
I20
sS'Evil Ryu'
p13
I44
sS'T.Hawk'
p14
I10
sS'Ken'
p15
I30
sS'Rolento'
p16
I29
sS'El Fuerte'
p17
I22
sS'Adon'
p18
I13
sS'Zangief'
p19
I29
sS'C.Viper'
p20
I31
sS'Blanka'
p21
I6
sS'Juri'
p22
I7
sS'Sagat'
p23
I49
sS'Dhalsim'
p24
I6
sS'Akuma'
p25
I28
sS'Gen'
p26
I11
sS'Guile'
p27
I34
sS'Fei Long'
p28
I30
sS'Gouken'
p29
I7
sS'Chun-Li'
p30
I20
sS'Seth'
p31
I29
sS'Yang'
p32
I8
sS'Yun'
p33
I35
sS'Decapre'
p34
I43
sS'Dee Jay'
p35
I3
sS'Guy'
p36
I15
sS'Elena'
p37
I34
sS'Rufus'
p38
I32
sS'Oni'
p39
I4
sS'Balrog'
p40
I13
sS'Vega'
p41
I12
sS'Abel'
p42
I40
sS'Ibuki'
p43
I16
sS'Dan'
p44
I0
sS'E.Honda'
p45
I2
sS'Cody'
p46
I9
stRp47
.