(lp1
(NS'Cannes Winter Clash'
tp2
a(NS'Abuget Cup'
tp3
a(NS'Nine States Tournament'
tp4
a(S'Premier'
S'Final Round 18'
tp5
a(S'Premier'
S'NorCal Regionals'
tp6
a(S'Premier'
S'Hypespotting 4'
tp7
a(NS'Northwest Majors 7'
tp8
a(NS'Double Elimination'
tp9
a(NS'KVO'
tp10
a(NS'Texas Showdown'
tp11
a(S'Ranking'
S'Combo Breaker'
tp12
a(S'Premier'
S'Stunfest'
tp13
a(S'Ranking'
S'FFM-Rumble #8'
tp14
a(S'Ranking'
S'Dreamhack Summer'
tp15
a(S'Premier'
S'South East Asia Major'
tp16
a(S'Premier'
S'CEO'
tp17
a(NS'Evolution Championship Series'
tp18
a(S'Ranking'
S'Capcom Pro Tour Asia Shangh'
tp19
a(S'Ranking'
S'VSFighting'
tp20
a(S'Ranking'
S'FV Cup'
tp21
a(S'Ranking'
S'Taiwan Fighting Game Majo'
tp22
a(S'Ranking'
S'Summer Jam 9'
tp23
a(S'Ranking'
S'CPTA Hong Kong'
tp24
a(S'Ranking'
S'Manila Cup'
tp25
a(S'Ranking'
S'First Attack'
tp26
a(S'Ranking'
S'The Fall Classic'
tp27
a(S'Ranking'
S'Saigon Cup'
tp28
a(S'Premier'
S'Mad Catz Tokyo Game Show'
tp29
a(S'Premier'
S'KO Fighting Game Festival'
tp30
a(S'Ranking'
S'EGX'
tp31
a(S'Ranking'
S'The Call of Ragnarok'
tp32
a(S'Ranking'
S'Red Fight District IV'
tp33
a(S'Ranking'
S'Ze Fighting Game Championship'
tp34
a(S'Premier'
S'SoCal Regionals'
tp35
a(S'Premier'
S'Capcom Pro Tour Braz'
tp36
a(S'Premier'
S'Ultra Hyakkishu Cup'
tp37
a(S'Premier'
S'Milan Games Week'
tp38
a(S'Ranking'
S'Defend the North'
tp39
a(S'Ranking'
S'True Challengers Costa Rica'
tp40
a(S'Premier'
S'Canada Cup'
tp41
a.