(dp1
S'EGX'
p2
S'EGX'
p3
sS'Capcom Pro Tour Asia Shanghai'
p4
S'CPTAS'
p5
sS'NorCal Regionals'
p6
S'NCR'
p7
sS'Stunfest'
p8
S'SF'
p9
sS'KO Fighting Game Festival'
p10
S'KOFGF'
p11
sS'Hypespotting 4'
p12
S'HS'
p13
sS'SoCal Regionals'
p14
S'SCR'
p15
sS'The Call of Ragnarok'
p16
S'COR'
p17
sS'Red Fight District IV'
p18
S'RFD'
p19
sS'Double Elimination'
p20
S'DE'
p21
sS'Saigon Cup'
p22
S'SC'
p23
sS'Summer Jam 9'
p24
S'SJ'
p25
sS'Mad Catz Tokyo Game Show'
p26
S'MCZTGS'
p27
sS'VSFighting'
p28
S'VSF'
p29
sS'Ze Fighting Game Championship'
p30
S'ZFGC'
p31
sS'Defend the North'
p32
S'DTN'
p33
sS'Canada Cup'
p34
S'CC'
p35
sS'CEO'
p36
S'CEO'
p37
sS'Capcom Pro Tour Brazil'
p38
S'CPTB'
p39
sS'Milan Games Week'
p40
S'MGW'
p41
sS'Texas Showdown'
p42
S'TS'
p43
sS'Final Round 18'
p44
S'FR'
p45
sS'Combo Breaker'
p46
S'CB'
p47
sS'Manila Cup'
p48
S'MC'
p49
sS'Dreamhack Summer'
p50
S'DS'
p51
sS'Abuget Cup'
p52
S'AC'
p53
sS'Nine States Tournament'
p54
S'NST'
p55
sS'First Attack'
p56
S'FA'
p57
sS'Northwest Majors 7'
p58
S'NWM'
p59
sS'FV Cup'
p60
S'FVC'
p61
sS'Cannes Winter Clash'
p62
S'CWC'
p63
sS'Ultra Hyakkishu Cup'
p64
S'UHC'
p65
sS'The Fall Classic'
p66
S'TFC'
p67
sS'Evolution Championship Series'
p68
S'EVO'
p69
sS'KVO'
p70
S'KVO'
p71
sS'True Challengers Costa Rica'
p72
S'TCCR'
p73
sS'Taiwan Fighting Game Major'
p74
S'TFGM'
p75
sS'CPTA Hong Kong'
p76
S'CPTAHK'
p77
sS'FFM-Rumble #8'
p78
S'FFMR'
p79
sS'South East Asia Major'
p80
S'SEAM'
p81
s.