(dp1
S'FR'
p2
S'Final Round 18'
p3
sS'EGX'
p4
S'EGX'
p5
sS'DTN'
p6
S'Defend the North'
p7
sS'EVO'
p8
S'Evolution Championship Series'
p9
sS'HS'
p10
S'Hypespotting 4'
p11
sS'DE'
p12
S'Double Elimination'
p13
sS'CPTAS'
p14
S'Capcom Pro Tour Asia Shanghai'
p15
sS'FA'
p16
S'First Attack'
p17
sS'COR'
p18
S'The Call of Ragnarok'
p19
sS'SEAM'
p20
S'South East Asia Major'
p21
sS'DS'
p22
S'Dreamhack Summer'
p23
sS'ZFGC'
p24
S'Ze Fighting Game Championship'
p25
sS'CEO'
p26
S'CEO'
p27
sS'KOFGF'
p28
S'KO Fighting Game Festival'
p29
sS'TS'
p30
S'Texas Showdown'
p31
sS'TFGM'
p32
S'Taiwan Fighting Game Major'
p33
sS'NWM'
p34
S'Northwest Majors 7'
p35
sS'MCZTGS'
p36
S'Mad Catz Tokyo Game Show'
p37
sS'NST'
p38
S'Nine States Tournament'
p39
sS'SCR'
p40
S'SoCal Regionals'
p41
sS'AC'
p42
S'Abuget Cup'
p43
sS'FFMR'
p44
S'FFM-Rumble #8'
p45
sS'CC'
p46
S'Canada Cup'
p47
sS'CB'
p48
S'Combo Breaker'
p49
sS'FVC'
p50
S'FV Cup'
p51
sS'RFD'
p52
S'Red Fight District IV'
p53
sS'CPTAHK'
p54
S'CPTA Hong Kong'
p55
sS'CWC'
p56
S'Cannes Winter Clash'
p57
sS'CPTB'
p58
S'Capcom Pro Tour Brazil'
p59
sS'UHC'
p60
S'Ultra Hyakkishu Cup'
p61
sS'MC'
p62
S'Manila Cup'
p63
sS'KVO'
p64
S'KVO'
p65
sS'NCR'
p66
S'NorCal Regionals'
p67
sS'TCCR'
p68
S'True Challengers Costa Rica'
p69
sS'TFC'
p70
S'The Fall Classic'
p71
sS'SJ'
p72
S'Summer Jam 9'
p73
sS'MGW'
p74
S'Milan Games Week'
p75
sS'VSF'
p76
S'VSFighting'
p77
sS'SC'
p78
S'Saigon Cup'
p79
sS'SF'
p80
S'Stunfest'
p81
s.