(dp1
S'Emersion'
p2
I1
sS'Pepeday'
p3
I9
sS'Taayan'
p4
I1
sS'Andreas'
p5
I28
sS'Baby Brasil'
p6
I4
sS'Hoodaman'
p7
I1
sS'Nano'
p8
I2
sS'Misse'
p9
I144
sS'Gonzales'
p10
I112
sS'Xiaohu'
p11
I8
sS'Kindevu'
p12
I10
sS'Solidjin'
p13
I4
sS'Infexious'
p14
I64
sS'King Funk'
p15
I1
sS'Snake Eyez'
p16
I440
sS'Santarouman'
p17
I20
sS'Rosso'
p18
I2
sS'Shimauta'
p19
I4
sS'Tian Sia Ren (???)'
p20
I1
sS'KojiKOG'
p21
I72
sS'Ibukiman'
p22
I64
sS'Isam'
p23
I1
sS'Damdai'
p24
I1
sS'Nice1'
p25
I1
sS'FABINHO'
p26
I2
sS'Khangaroo'
p27
I4
sS'Shin Phoenix'
p28
I1
sS'Cocaneta'
p29
I2
sS'PR Balrog'
p30
I132
sS'Mago'
p31
I556
sS'Tuan Mario'
p32
I1
sS'RB'
p33
I71
sS'Eita'
p34
I17
sS'Poongko'
p35
I308
sS'Dickson'
p36
I1
sS'Revenger32'
p37
I8
sS'XiaoLong'
p38
I18
sS'DR Ray'
p39
I4
sS'Sheva'
p40
I1
sS'Battousai'
p41
I1
sS'Xitao'
p42
I2
sS'CK-VNZ'
p43
I1
sS'OverMostHeads'
p44
I2
sS'CodyNp'
p45
I7
sS'AHo'
p46
I2
sS'Air'
p47
I16
sS'LPN'
p48
I36
sS'Nishikin'
p49
I44
sS'NYChrisG'
p50
I27
sS'StarNab'
p51
I2
sS'Abang'
p52
I1
sS'ThunderBear'
p53
I4
sS'Reiketsu'
p54
I40
sS'Xiao Hai'
p55
I360
sS'Ars'
p56
I2
sS'Huracan Azura'
p57
I4
sS'Alex Valle'
p58
I2
sS'BS Ioros'
p59
I1
sS'Ryan Hart (Prodigal Son)'
p60
I126
sS'AbAb'
p61
I2
sS'KichijoujiKen'
p62
I4
sS'BliRedd'
p63
I2
sS'Stanick'
p64
I4
sS'Ninja Shakz'
p65
I4
sS'-6'
p66
I12
sS'Problem X'
p67
I178
sS'Ranmasama'
p68
I1
sS'Tyrant'
p69
I20
sS'Luffy'
p70
I724
sS'Daigo Umehara'
p71
I546
sS'Filipinoman'
p72
I52
sS'Cuongster'
p73
I1
sS'Demulant'
p74
I5
sS'Fawwaz'
p75
I4
sS'Garret'
p76
I1
sS'Ghost'
p77
I1
sS'KDZ'
p78
I2
sS'GZ-Ben'
p79
I1
sS'Dark Jiewa'
p80
I207
sS'KOK'
p81
I17
sS'Ebi'
p82
I2
sS'Damascus'
p83
I2
sS'Leffen'
p84
I1
sS'Rokkun'
p85
I64
sS'Marq Teddy'
p86
I2
sS'Stekoh'
p87
I1
sS'Veloc1raptor'
p88
I1
sS'EvilYoshi'
p89
I2
sS'Haizek'
p90
I1
sS'Onikiri Kai'
p91
I2
sS'Bashfest'
p92
I4
sS'Pnoy'
p93
I10
sS'Meishan Quanwang'
p94
I1
sS'Doomed'
p95
I4
sS'Latif'
p96
I72
sS'HumanBomb'
p97
I203
sS'Meu'
p98
I1
sS'Javits'
p99
I1
sS'ChuChu'
p100
I32
sS'Gunslinga'
p101
I3
sS'Alucard'
p102
I14
sS'Chris'
p103
I2
sS'GamerBee'
p104
I740
sS'Brillz'
p105
I1
sS'K-Brad'
p106
I96
sS'LAUGH'
p107
I1
sS'emptysys'
p108
I1
sS'Akira'
p109
I2
sS'Hiro'
p110
I8
sS'Dru'
p111
I2
sS'RMZ'
p112
I5
sS'Chiaki'
p113
I2
sS'CrazySalvi'
p114
I2
sS'NuckleDu'
p115
I268
sS'Halibel'
p116
I1
sS'Dieminion'
p117
I236
sS'Sketch'
p118
I2
sS'BobbyBlunts'
p119
I2
sS'God of Sky'
p120
I12
sS'FourWude'
p121
I2
sS'Guiller BR'
p122
I8
sS'Shoryusengan'
p123
I8
sS'Nando Tovar'
p124
I6
sS'Darkchild'
p125
I2
sS'Xian'
p126
I798
sS'MOV'
p127
I66
sS'Kreymore'
p128
I2
sS'Flocker'
p129
I2
sS'DB.KOOPA'
p130
I2
sS'Dakou'
p131
I140
sS'CamizaKOF'
p132
I4
sS'Jebailey'
p133
I1
sS'Hamad'
p134
I1
sS'Milligano'
p135
I4
sS'Momochi'
p136
I1374
sS'801 Jayce the Ace'
p137
I11
sS'Dunhill'
p138
I8
sS'Caju'
p139
I8
sS'Chengfei'
p140
I2
sS'Sako'
p141
I64
sS'Ush'
p142
I1
sS'Brian'
p143
I1
sS'Sanford Kelly'
p144
I1
sS'Itabashi Zangief (Itazan)'
p145
I296
sS'RLBS'
p146
I1
sS'Packz'
p147
I18
sS'Phenom'
p148
I80
sS'Kakaroto'
p149
I8
sS'Inco'
p150
I41
sS'Justin Wong'
p151
I310
sS'EX Pugera'
p152
I36
sS'Brenttiscool'
p153
I11
sS'QQEL'
p154
I8
sS'Keoma'
p155
I256
sS'Yossan'
p156
I4
sS'Jacare'
p157
I2
sS'Eunbeen'
p158
I1
sS'Sabin'
p159
I40
sS'Magneto1080p'
p160
I4
sS'FRS'
p161
I1
sS'SASA'
p162
I1
sS'Dashio'
p163
I258
sS'UltraBram'
p164
I1
sS'MDR'
p165
I2
sS'Fuzzy'
p166
I1
sS'QuiQuiKOF'
p167
I2
sS'Renegad'
p168
I1
sS'Hsien Chang'
p169
I6
sS'Zaferino'
p170
I8
sS'Mizoteru'
p171
I4
sS'Kenji'
p172
I1
sS'Gachikun (Gattikun)'
p173
I10
sS'Badi Lootion'
p174
I1
sS'Hurricane237'
p175
I8
sS'Kenmike77'
p176
I1
sS'Dudebag'
p177
I4
sS'AiAi'
p178
I68
sS'R'
I16
sS'Shamwow'
p179
I2
sS'Alexandro'
p180
I4
sS'SaltyKid'
p181
I1
sS'Nekopunch'
p182
I1
sS'Valmaster'
p183
I148
sS'Integra'
p184
I3
sS'Onisan'
p185
I3
sS'Kim1234'
p186
I7
sS'El Chakotay'
p187
I3
sS'Flawless Deku'
p188
I4
sS'Dark817'
p189
I2
sS'Dianminion'
p190
I4
sS'StormKUBO'
p191
I72
sS'Koji'
p192
I8
sS'Pro Fluke'
p193
I42
sS'Akimo'
p194
I7
sS'Ahbao'
p195
I1
sS'Kindo'
p196
I4
sS'Susubabi'
p197
I2
sS'Gabo'
p198
I4
sS'Andy'
p199
I2
sS'Veggey'
p200
I8
sS'Doomsday 507'
p201
I16
sS'Afii'
p202
I10
sS'Tokido'
p203
I700
sS'Fuudo'
p204
I610
sS'Goj1980'
p205
I1
sS'Bebedero'
p206
I8
sS'Anton'
p207
I2
sS'Tampa Bison'
p208
I36
sS'Haitani'
p209
I131
sS'Ricki Ortiz'
p210
I100
sS'Pr3da'
p211
I16
sS'Bonchan'
p212
I896
sS'Wolfkrone'
p213
I16
sS'Kawaguchi'
p214
I11
sS'EightGrade'
p215
I4
sS'Shinba'
p216
I16
sS'Shaun'
p217
I1
sS'SAUNIC'
p218
I10
sS'801 Strider'
p219
I238
sS'Gagapa'
p220
I12
sS'Baoice'
p221
I1
sS'Hunter'
p222
I2
sS'Kazunoko'
p223
I512
sS'Famous'
p224
I1
sS'German Luger'
p225
I1
sS'Gackt'
p226
I160
sS'James'
p227
I1
sS'Smug'
p228
I60
sS'ImStillDaDaddy'
p229
I17
sS'MBR'
p230
I24
sS'Shine'
p231
I16
sS'Duppsko'
p232
I2
sS'Chuan'
p233
I59
sS'Berzack'
p234
I2
sS'Will2Pac'
p235
I2
sS'Gannoon'
p236
I16
sS'Joel'
p237
I12
sS'Cameraman'
p238
I2
sS'Kike'
p239
I1
sS'HurtchVR'
p240
I1
sS'Chaotix'
p241
I1
sS'Pedram'
p242
I2
sS'Ikatsui Yarou'
p243
I1
sS'Hikarin'
p244
I1
sS'Keno (2015)'
p245
I2
sS'Julio'
p246
I6
sS'F-Word'
p247
I9
sS'Tonpy'
p248
I280
sS'Riceata'
p249
I8
sS'KitasenjuDJ'
p250
I32
sS'Shiro (Shirou)'
p251
I182
sS'Nemo'
p252
I416
sS'Native Impact'
p253
I10
sS'XR PROMETO'
p254
I16
sS'Twiggy'
p255
I2
sS'Nox2'
p256
I8
sS'Leslie'
p257
I8
sS'Infiltration'
p258
I1076
sS'Gorcrx'
p259
I2
sS'JehoSan'
p260
I16
sS'Drapoyo'
p261
I1
s.