(dp1
S'Emersion'
p2
I215
sS'Pepeday'
p3
I96
sS'Taayan'
p4
I248
sS'Andreas'
p5
I62
sS'Baby Brasil'
p6
I123
sS'Hoodaman'
p7
I238
sS'Nano'
p8
I198
sS'Misse'
p9
I30
sS'Gonzales'
p10
I35
sS'Xiaohu'
p11
I114
sS'Kindevu'
p12
I94
sS'Solidjin'
p13
I140
sS'Infexious'
p14
I46
sS'King Funk'
p15
I223
sS'Snake Eyez'
p16
I12
sS'Santarouman'
p17
I66
sS'Rosso'
p18
I187
sS'Shimauta'
p19
I138
sS'Tian Sia Ren (???)'
p20
I252
sS'KojiKOG'
p21
I40
sS'Ibukiman'
p22
I48
sS'Isam'
p23
I257
sS'Damdai'
p24
I208
sS'Nice1'
p25
I230
sS'FABINHO'
p26
I190
sS'Khangaroo'
p27
I124
sS'Shin Phoenix'
p28
I261
sS'Cocaneta'
p29
I162
sS'PR Balrog'
p30
I32
sS'Mago'
p31
I9
sS'Tuan Mario'
p32
I255
sS'RB'
p33
I42
sS'Eita'
p34
I69
sS'Poongko'
p35
I16
sS'Dickson'
p36
I209
sS'Revenger32'
p37
I107
sS'XiaoLong'
p38
I68
sS'DR Ray'
p39
I127
sS'Sheva'
p40
I225
sS'Battousai'
p41
I246
sS'Xitao'
p42
I176
sS'CK-VNZ'
p43
I205
sS'OverMostHeads'
p44
I188
sS'CodyNp'
p45
I116
sS'AHo'
p46
I154
sS'Air'
p47
I73
sS'LPN'
p48
I59
sS'Nishikin'
p49
I52
sS'NYChrisG'
p50
I63
sS'StarNab'
p51
I194
sS'Abang'
p52
I211
sS'ThunderBear'
p53
I142
sS'Reiketsu'
p54
I55
sS'Xiao Hai'
p55
I14
sS'Ars'
p56
I197
sS'Huracan Azura'
p57
I135
sS'Alex Valle'
p58
I177
sS'BS Ioros'
p59
I253
sS'Ryan Hart (Prodigal Son)'
p60
I34
sS'AbAb'
p61
I153
sS'KichijoujiKen'
p62
I146
sS'BliRedd'
p63
I185
sS'Stanick'
p64
I139
sS'Ninja Shakz'
p65
I128
sS'-6'
p66
I83
sS'Problem X'
p67
I27
sS'Ranmasama'
p68
I241
sS'Tyrant'
p69
I65
sS'Luffy'
p70
I6
sS'Daigo Umehara'
p71
I10
sS'Filipinoman'
p72
I51
sS'Cuongster'
p73
I234
sS'Demulant'
p74
I121
sS'Fawwaz'
p75
I141
sS'Garret'
p76
I226
sS'Ghost'
p77
I244
sS'KDZ'
p78
I166
sS'GZ-Ben'
p79
I219
sS'Dark Jiewa'
p80
I24
sS'KOK'
p81
I70
sS'Ebi'
p82
I152
sS'Damascus'
p83
I171
sS'Leffen'
p84
I254
sS'Rokkun'
p85
I47
sS'Marq Teddy'
p86
I181
sS'Stekoh'
p87
I247
sS'Veloc1raptor'
p88
I214
sS'EvilYoshi'
p89
I167
sS'Haizek'
p90
I220
sS'Onikiri Kai'
p91
I182
sS'Bashfest'
p92
I125
sS'Pnoy'
p93
I95
sS'Meishan Quanwang'
p94
I233
sS'Doomed'
p95
I136
sS'Latif'
p96
I41
sS'HumanBomb'
p97
I25
sS'Meu'
p98
I235
sS'Javits'
p99
I228
sS'ChuChu'
p100
I61
sS'Gunslinga'
p101
I148
sS'Alucard'
p102
I82
sS'Chris'
p103
I180
sS'GamerBee'
p104
I5
sS'Brillz'
p105
I202
sS'K-Brad'
p106
I37
sS'LAUGH'
p107
I231
sS'emptysys'
p108
I216
sS'Akira'
p109
I155
sS'Hiro'
p110
I101
sS'Dru'
p111
I173
sS'RMZ'
p112
I122
sS'Chiaki'
p113
I161
sS'CrazySalvi'
p114
I169
sS'NuckleDu'
p115
I19
sS'Halibel'
p116
I224
sS'Dieminion'
p117
I23
sS'Sketch'
p118
I193
sS'BobbyBlunts'
p119
I168
sS'God of Sky'
p120
I85
sS'FourWude'
p121
I165
sS'Guiller BR'
p122
I108
sS'Shoryusengan'
p123
I112
sS'Nando Tovar'
p124
I120
sS'Darkchild'
p125
I164
sS'Xian'
p126
I4
sS'MOV'
p127
I44
sS'Kreymore'
p128
I175
sS'Flocker'
p129
I195
sS'DB.KOOPA'
p130
I163
sS'Dakou'
p131
I31
sS'CamizaKOF'
p132
I145
sS'Jebailey'
p133
I204
sS'Hamad'
p134
I210
sS'Milligano'
p135
I143
sS'Momochi'
p136
I1
sS'801 Jayce the Ace'
p137
I89
sS'Dunhill'
p138
I102
sS'Caju'
p139
I109
sS'Chengfei'
p140
I160
sS'Sako'
p141
I45
sS'Ush'
p142
I258
sS'Brian'
p143
I203
sS'Sanford Kelly'
p144
I251
sS'Itabashi Zangief (Itazan)'
p145
I17
sS'RLBS'
p146
I237
sS'Packz'
p147
I67
sS'Phenom'
p148
I38
sS'Kakaroto'
p149
I110
sS'Inco'
p150
I54
sS'Justin Wong'
p151
I15
sS'EX Pugera'
p152
I58
sS'Brenttiscool'
p153
I87
sS'QQEL'
p154
I100
sS'Keoma'
p155
I21
sS'Yossan'
p156
I147
sS'Jacare'
p157
I191
sS'Eunbeen'
p158
I217
sS'Sabin'
p159
I56
sS'Magneto1080p'
p160
I132
sS'FRS'
p161
I218
sS'SASA'
p162
I243
sS'Dashio'
p163
I20
sS'UltraBram'
p164
I256
sS'MDR'
p165
I178
sS'Fuzzy'
p166
I232
sS'QuiQuiKOF'
p167
I184
sS'Renegad'
p168
I207
sS'Hsien Chang'
p169
I118
sS'Zaferino'
p170
I104
sS'Mizoteru'
p171
I133
sS'Kenji'
p172
I200
sS'Gachikun (Gattikun)'
p173
I92
sS'Badi Lootion'
p174
I201
sS'Hurricane237'
p175
I98
sS'Kenmike77'
p176
I229
sS'Dudebag'
p177
I144
sS'AiAi'
p178
I43
sS'R'
I81
sS'Shamwow'
p179
I192
sS'Alexandro'
p180
I137
sS'SaltyKid'
p181
I242
sS'Nekopunch'
p182
I236
sS'Valmaster'
p183
I29
sS'Integra'
p184
I150
sS'Onisan'
p185
I149
sS'Kim1234'
p186
I117
sS'El Chakotay'
p187
I151
sS'Flawless Deku'
p188
I129
sS'Dark817'
p189
I189
sS'Dianminion'
p190
I126
sS'StormKUBO'
p191
I39
sS'Koji'
p192
I103
sS'Pro Fluke'
p193
I53
sS'Akimo'
p194
I115
sS'Ahbao'
p195
I240
sS'Kindo'
p196
I131
sS'Susubabi'
p197
I196
sS'Gabo'
p198
I134
sS'Andy'
p199
I159
sS'Veggey'
p200
I99
sS'Doomsday 507'
p201
I74
sS'Afii'
p202
I90
sS'Tokido'
p203
I7
sS'Fuudo'
p204
I8
sS'Goj1980'
p205
I206
sS'Bebedero'
p206
I111
sS'Anton'
p207
I156
sS'Tampa Bison'
p208
I57
sS'Haitani'
p209
I33
sS'Ricki Ortiz'
p210
I36
sS'Pr3da'
p211
I72
sS'Bonchan'
p212
I3
sS'Wolfkrone'
p213
I79
sS'Kawaguchi'
p214
I88
sS'EightGrade'
p215
I130
sS'Shinba'
p216
I78
sS'Shaun'
p217
I245
sS'SAUNIC'
p218
I93
sS'801 Strider'
p219
I22
sS'Gagapa'
p220
I84
sS'Baoice'
p221
I260
sS'Hunter'
p222
I172
sS'Kazunoko'
p223
I11
sS'Famous'
p224
I239
sS'German Luger'
p225
I250
sS'Gackt'
p226
I28
sS'James'
p227
I227
sS'Smug'
p228
I49
sS'ImStillDaDaddy'
p229
I71
sS'MBR'
p230
I64
sS'Shine'
p231
I76
sS'Duppsko'
p232
I186
sS'Chuan'
p233
I50
sS'Berzack'
p234
I157
sS'Will2Pac'
p235
I179
sS'Gannoon'
p236
I80
sS'Joel'
p237
I86
sS'Cameraman'
p238
I158
sS'Kike'
p239
I249
sS'HurtchVR'
p240
I212
sS'Chaotix'
p241
I259
sS'Pedram'
p242
I183
sS'Ikatsui Yarou'
p243
I222
sS'Hikarin'
p244
I221
sS'Keno (2015)'
p245
I174
sS'Julio'
p246
I119
sS'F-Word'
p247
I97
sS'Tonpy'
p248
I18
sS'Riceata'
p249
I106
sS'KitasenjuDJ'
p250
I60
sS'Shiro (Shirou)'
p251
I26
sS'Nemo'
p252
I13
sS'Native Impact'
p253
I91
sS'XR PROMETO'
p254
I77
sS'Twiggy'
p255
I199
sS'Nox2'
p256
I113
sS'Leslie'
p257
I105
sS'Infiltration'
p258
I2
sS'Gorcrx'
p259
I170
sS'JehoSan'
p260
I75
sS'Drapoyo'
p261
I213
s.