(lp1
(lp2
(S'EG'
S'Momochi'
tp3
aI1
aS'https://capcomprotour.com/player/?player=7309&lang=en-us'
p4
aa(lp5
(NS'Infiltration'
tp6
aI2
aS'https://capcomprotour.com/player/?player=13393&lang=en-us'
p7
aa(lp8
(S'RB'
S'Bonchan'
tp9
aI3
aS'https://capcomprotour.com/player/?player=15952&lang=en-us'
p10
aa(lp11
(S'RZR'
S'Xian'
tp12
aI4
aS'https://capcomprotour.com/player/?player=4354&lang=en-us'
p13
aa(lp14
(S'AVM'
S'GamerBee'
tp15
aI5
aS'https://capcomprotour.com/player/?player=6064&lang=en-us'
p16
aa(lp17
(S'MD'
S'Luffy'
tp18
aI6
aS'https://capcomprotour.com/player/?player=6997&lang=en-us'
p19
aa(lp20
(S'MCZ'
S'Tokido'
tp21
aI7
aS'https://capcomprotour.com/player/?player=1006&lang=en-us'
p22
aa(lp23
(S'RZR'
S'Fuudo'
tp24
aI8
aS'https://capcomprotour.com/player/?player=1012&lang=en-us'
p25
aa(lp26
(S'MCZ'
S'Mago'
tp27
aI9
aS'https://capcomprotour.com/player/?player=1002&lang=en-us'
p28
aa(lp29
(S'MCZ'
S'Daigo Umehara'
tp30
aI10
aS'https://capcomprotour.com/player/?player=9933&lang=en-us'
p31
aa(lp32
(NS'Kazunoko'
tp33
aI11
aS'https://capcomprotour.com/player/?player=15012&lang=en-us'
p34
aa(lp35
(S'RB'
S'Snake Eyez'
tp36
aI12
aS'https://capcomprotour.com/player/?player=15022&lang=en-us'
p37
aa(lp38
(NS'Nemo'
tp39
aI13
aS'https://capcomprotour.com/player/?player=17703&lang=en-us'
p40
aa(lp41
(S'Qanba Douyu'
S'Xiao Hai'
tp42
aI14
aS'https://capcomprotour.com/player/?player=15773&lang=en-us'
p43
aa(lp44
(S'EG'
S'Justin Wong'
tp45
aI15
aS'https://capcomprotour.com/player/?player=5595&lang=en-us'
p46
aa(lp47
(S'/r/Kappa'
S'Poongko'
tp48
aI16
aS'https://capcomprotour.com/player/?player=7597&lang=en-us'
p49
aa(lp50
(NS'Itabashi Zangief (Itazan)'
tp51
aI17
aS'https://capcomprotour.com/player/?player=18126&lang=en-us'
p52
aa(lp53
(S'MF'
S'Tonpy'
tp54
aI18
aS'https://capcomprotour.com/player/?player=15959&lang=en-us'
p55
aa(lp56
(S'Liquid'
S'NuckleDu'
tp57
aI19
aS'https://capcomprotour.com/player/?player=9949&lang=en-us'
p58
aa(lp59
(S'YBK'
S'Dashio'
tp60
aI20
aS'https://capcomprotour.com/player/?player=15961&lang=en-us'
p61
aa(lp62
(NS'Keoma'
tp63
aI21
aS'https://capcomprotour.com/player/?player=16969&lang=en-us'
p64
aa(lp65
(S'WFX'
S'801 Strider'
tp66
aI22
aS'https://capcomprotour.com/player/?player=14832&lang=en-us'
p67
aa(lp68
(S'YOMI'
S'Dieminion'
tp69
aI23
aS'https://capcomprotour.com/player/?player=13423&lang=en-us'
p70
aa(lp71
(NS'Dark Jiewa'
tp72
aI24
aS'https://capcomprotour.com/player/?player=8497&lang=en-us'
p73
aa(lp74
(S'CCG'
S'HumanBomb'
tp75
aI25
aS'https://capcomprotour.com/player/?player=8996&lang=en-us'
p76
aa(lp77
(S'YBK'
S'Shiro (Shirou)'
tp78
aI26
aS'https://capcomprotour.com/player/?player=16354&lang=en-us'
p79
aa(lp80
(S'KIG'
S'Problem X'
tp81
aI27
aS'https://capcomprotour.com/player/?player=12950&lang=en-us'
p82
aa(lp83
(S'RZR'
S'Gackt'
tp84
aI28
aS'https://capcomprotour.com/player/?player=1049&lang=en-us'
p85
aa(lp86
(NS'Valmaster'
tp87
aI29
aS'https://capcomprotour.com/player/?player=16981&lang=en-us'
p88
aa(lp89
(S'/r/Kappa'
S'Misse'
tp90
aI30
aS'https://capcomprotour.com/player/?player=18586&lang=en-us'
p91
aa(lp92
(S'Qanba Douyu'
S'Dakou'
tp93
aI31
aS'https://capcomprotour.com/player/?player=17900&lang=en-us'
p94
aa(lp95
(S'EG'
S'PR Balrog'
tp96
aI32
aS'https://capcomprotour.com/player/?player=4691&lang=en-us'
p97
aa(lp98
(S'Brawl'
S'Haitani'
tp99
aI33
aS'https://capcomprotour.com/player/?player=16985&lang=en-us'
p100
aa(lp101
(S'FA'
S'Ryan Hart (Prodigal Son)'
tp102
aI34
aS'https://capcomprotour.com/player/?player=11961&lang=en-us'
p103
aa(lp104
(S'ESR'
S'Gonzales'
tp105
aI35
aS'https://capcomprotour.com/player/?player=18145&lang=en-us'
p106
aa(lp107
(S'EG'
S'Ricki Ortiz'
tp108
aI36
aS'https://capcomprotour.com/player/?player=11795&lang=en-us'
p109
aa(lp110
(S'EG'
S'K-Brad'
tp111
aI37
aS'https://capcomprotour.com/player/?player=4866&lang=en-us'
p112
aa(lp113
(S'BX3.TPLink'
S'Phenom'
tp114
aI38
aS'https://capcomprotour.com/player/?player=15047&lang=en-us'
p115
aa(lp116
(S'Devil_Reapers'
S'StormKUBO'
tp117
aI39
aS'https://capcomprotour.com/player/?player=16603&lang=en-us'
p118
aa(lp119
(NS'KojiKOG'
tp120
aI40
aS'https://capcomprotour.com/player/?player=15980&lang=en-us'
p121
aa(lp122
(NS'Latif'
tp123
aI41
aS'https://capcomprotour.com/player/?player=4551&lang=en-us'
p124
aa(lp125
(S'RZR'
S'RB'
tp126
aI42
aS'https://capcomprotour.com/player/?player=13139&lang=en-us'
p127
aa(lp128
(NS'AiAi'
tp129
aI43
aS'https://capcomprotour.com/player/?player=15984&lang=en-us'
p130
aa(lp131
(NS'MOV'
tp132
aI44
aS'https://capcomprotour.com/player/?player=15039&lang=en-us'
p133
aa(lp134
(S'HORI'
S'Sako'
tp135
aI45
aS'https://capcomprotour.com/player/?player=3471&lang=en-us'
p136
aa(lp137
(S'Rize'
S'Infexious'
tp138
aI46
aS'https://capcomprotour.com/player/?player=12524&lang=en-us'
p139
aa(lp140
(NS'Rokkun'
tp141
aI47
aS'https://capcomprotour.com/player/?player=17912&lang=en-us'
p142
aa(lp143
(S'SOA'
S'Ibukiman'
tp144
aI48
aS'https://capcomprotour.com/player/?player=1783&lang=en-us'
p145
aa(lp146
(S'PIE'
S'Smug'
tp147
aI49
aS'https://capcomprotour.com/player/?player=5628&lang=en-us'
p148
aa(lp149
(NS'Chuan'
tp150
aI50
aS'https://capcomprotour.com/player/?player=5195&lang=en-us'
p151
aa(lp152
(NS'Filipinoman'
tp153
aI51
aS'https://capcomprotour.com/player/?player=13893&lang=en-us'
p154
aa(lp155
(NS'Nishikin'
tp156
aI52
aS'https://capcomprotour.com/player/?player=5613&lang=en-us'
p157
aa(lp158
(NS'Pro Fluke'
tp159
aI53
aS'https://capcomprotour.com/player/?player=11659&lang=en-us'
p160
aa(lp161
(NS'Inco'
tp162
aI54
aS'https://capcomprotour.com/player/?player=5045&lang=en-us'
p163
aa(lp164
(NS'Reiketsu'
tp165
aI55
aS'https://capcomprotour.com/player/?player=14729&lang=en-us'
p166
aa(lp167
(S'TS'
S'Sabin'
tp168
aI56
aS'https://capcomprotour.com/player/?player=915&lang=en-us'
p169
aa(lp170
(S'BOTB'
S'Tampa Bison'
tp171
aI57
aS'https://capcomprotour.com/player/?player=15458&lang=en-us'
p172
aa(lp173
(S'FGC'
S'EX Pugera'
tp174
aI58
aS'https://capcomprotour.com/player/?player=17926&lang=en-us'
p175
aa(lp176
(S'pH'
S'LPN'
tp177
aI59
aS'https://capcomprotour.com/player/?player=1549&lang=en-us'
p178
aa(lp179
(NS'KitasenjuDJ'
tp180
aI60
aS'https://capcomprotour.com/player/?player=17927&lang=en-us'
p181
aa(lp182
(S'Reversal'
S'ChuChu'
tp183
aI61
aS'https://capcomprotour.com/player/?player=17007&lang=en-us'
p184
aa(lp185
(S'Deku.WSO'
S'Andreas'
tp186
aI62
aS'https://capcomprotour.com/player/?player=12411&lang=en-us'
p187
aa(lp188
(S'Tempo'
S'NYChrisG'
tp189
aI63
aS'https://capcomprotour.com/player/?player=11096&lang=en-us'
p190
aa(lp191
(S'LLL'
S'MBR'
tp192
aI64
aS'https://capcomprotour.com/player/?player=1899&lang=en-us'
p193
aa(lp194
(S'UM'
S'Tyrant'
tp195
aI65
aS'https://capcomprotour.com/player/?player=5223&lang=en-us'
p196
aa(lp197
(S'YBK'
S'Santarouman'
tp198
aI66
aS'https://capcomprotour.com/player/?player=5716&lang=en-us'
p199
aa(lp200
(NS'Packz'
tp201
aI67
aS'https://capcomprotour.com/player/?player=5224&lang=en-us'
p202
aa(lp203
(NS'XiaoLong'
tp204
aI68
aS'https://capcomprotour.com/player/?player=8403&lang=en-us'
p205
aa(lp206
(NS'Eita'
tp207
aI69
aS'https://capcomprotour.com/player/?player=3493&lang=en-us'
p208
aa(lp209
(NS'KOK'
tp210
aI70
aS'https://capcomprotour.com/player/?player=11109&lang=en-us'
p211
aa(lp212
(S'UM'
S'ImStillDaDaddy'
tp213
aI71
aS'https://capcomprotour.com/player/?player=4390&lang=en-us'
p214
aa(lp215
(S'AAG'
S'Pr3da'
tp216
aI72
aS'https://capcomprotour.com/player/?player=17017&lang=en-us'
p217
aa(lp218
(S'CCG'
S'Air'
tp219
aI73
aS'https://capcomprotour.com/player/?player=5670&lang=en-us'
p220
aa(lp221
(NS'Doomsday 507'
tp222
aI74
aS'https://capcomprotour.com/player/?player=18180&lang=en-us'
p223
aa(lp224
(NS'JehoSan'
tp225
aI75
aS'https://capcomprotour.com/player/?player=7414&lang=en-us'
p226
aa(lp227
(S'OG'
S'Shine'
tp228
aI76
aS'https://capcomprotour.com/player/?player=18186&lang=en-us'
p229
aa(lp230
(S'SOA'
S'XR PROMETO'
tp231
aI77
aS'https://capcomprotour.com/player/?player=17018&lang=en-us'
p232
aa(lp233
(S'TTL'
S'Shinba'
tp234
aI78
aS'https://capcomprotour.com/player/?player=17935&lang=en-us'
p235
aa(lp236
(NS'Wolfkrone'
tp237
aI79
aS'https://capcomprotour.com/player/?player=909&lang=en-us'
p238
aa(lp239
(S'WTQ8'
S'Gannoon'
tp240
aI80
aS'https://capcomprotour.com/player/?player=16205&lang=en-us'
p241
aa(lp242
(S'YBK'
S'R'
tp243
aI81
aS'https://capcomprotour.com/player/?player=16201&lang=en-us'
p244
aa(lp245
(S'F3'
S'Alucard'
tp246
aI82
aS'https://capcomprotour.com/player/?player=15083&lang=en-us'
p247
aa(lp248
(NS'-6'
tp249
aI83
aS'https://capcomprotour.com/player/?player=16022&lang=en-us'
p250
aa(lp251
(NS'Gagapa'
tp252
aI84
aS'https://capcomprotour.com/player/?player=11989&lang=en-us'
p253
aa(lp254
(NS'God of Sky'
tp255
aI85
aS'https://capcomprotour.com/player/?player=16628&lang=en-us'
p256
aa(lp257
(S'YOMI'
S'Joel'
tp258
aI86
aS'https://capcomprotour.com/player/?player=12001&lang=en-us'
p259
aa(lp260
(S'BCW'
S'Brenttiscool'
tp261
aI87
aS'https://capcomprotour.com/player/?player=15092&lang=en-us'
p262
aa(lp263
(NS'Kawaguchi'
tp264
aI88
aS'https://capcomprotour.com/player/?player=9080&lang=en-us'
p265
aa(lp266
(S'YBK'
S'801 Jayce the Ace'
tp267
aI89
aS'https://capcomprotour.com/player/?player=18631&lang=en-us'
p268
aa(lp269
(NS'Afii'
tp270
aI90
aS'https://capcomprotour.com/player/?player=10054&lang=en-us'
p271
aa(lp272
(S'AG'
S'Native Impact'
tp273
aI91
aS'https://capcomprotour.com/player/?player=4207&lang=en-us'
p274
aa(lp275
(NS'Gachikun (Gattikun)'
tp276
aI92
aS'https://capcomprotour.com/player/?player=11523&lang=en-us'
p277
aa(lp278
(S'GL'
S'SAUNIC'
tp279
aI93
aS'https://capcomprotour.com/player/?player=8406&lang=en-us'
p280
aa(lp281
(NS'Kindevu'
tp282
aI94
aS'https://capcomprotour.com/player/?player=13907&lang=en-us'
p283
aa(lp284
(S'SD'
S'Pnoy'
tp285
aI95
aS'https://capcomprotour.com/player/?player=3815&lang=en-us'
p286
aa(lp287
(S'/r/Kappa'
S'Pepeday'
tp288
aI96
aS'https://capcomprotour.com/player/?player=17029&lang=en-us'
p289
aa(lp290
(NS'F-Word'
tp291
aI97
aS'https://capcomprotour.com/player/?player=1024&lang=en-us'
p292
aa(lp293
(S'BT.UM'
S'Hurricane237'
tp294
aI98
aS'https://capcomprotour.com/player/?player=16033&lang=en-us'
p295
aa(lp296
(S'BX3.TPLink'
S'Veggey'
tp297
aI99
aS'https://capcomprotour.com/player/?player=16414&lang=en-us'
p298
aa(lp299
(S'DouyuTV'
S'QQEL'
tp300
aI100
aS'https://capcomprotour.com/player/?player=14087&lang=en-us'
p301
aa(lp302
(S'EMP'
S'Hiro'
tp303
aI101
aS'https://capcomprotour.com/player/?player=9023&lang=en-us'
p304
aa(lp305
(S'FGC'
S'Dunhill'
tp306
aI102
aS'https://capcomprotour.com/player/?player=17949&lang=en-us'
p307
aa(lp308
(NS'Koji'
tp309
aI103
aS'https://capcomprotour.com/player/?player=5187&lang=en-us'
p310
aa(lp311
(S'L1'
S'Zaferino'
tp312
aI104
aS'https://capcomprotour.com/player/?player=15090&lang=en-us'
p313
aa(lp314
(NS'Leslie'
tp315
aI105
aS'https://capcomprotour.com/player/?player=5174&lang=en-us'
p316
aa(lp317
(S'OCV'
S'Riceata'
tp318
aI106
aS'https://capcomprotour.com/player/?player=18198&lang=en-us'
p319
aa(lp320
(NS'Revenger32'
tp321
aI107
aS'https://capcomprotour.com/player/?player=8694&lang=en-us'
p322
aa(lp323
(S'SFT'
S'Guiller BR'
tp324
aI108
aS'https://capcomprotour.com/player/?player=17042&lang=en-us'
p325
aa(lp326
(S'SOA'
S'Caju'
tp327
aI109
aS'https://capcomprotour.com/player/?player=17041&lang=en-us'
p328
aa(lp329
(S'TC507'
S'Kakaroto'
tp330
aI110
aS'https://capcomprotour.com/player/?player=18209&lang=en-us'
p331
aa(lp332
(S'TG'
S'Bebedero'
tp333
aI111
aS'https://capcomprotour.com/player/?player=18210&lang=en-us'
p334
aa(lp335
(S'UM'
S'Shoryusengan'
tp336
aI112
aS'https://capcomprotour.com/player/?player=10003&lang=en-us'
p337
aa(lp338
(S'WTQ8'
S'Nox2'
tp339
aI113
aS'https://capcomprotour.com/player/?player=16215&lang=en-us'
p340
aa(lp341
(NS'Xiaohu'
tp342
aI114
aS'https://capcomprotour.com/player/?player=16636&lang=en-us'
p343
aa(lp344
(NS'Akimo'
tp345
aI115
aS'https://capcomprotour.com/player/?player=3156&lang=en-us'
p346
aa(lp347
(NS'CodyNp'
tp348
aI116
aS'https://capcomprotour.com/player/?player=8698&lang=en-us'
p349
aa(lp350
(S'YBK'
S'Kim1234'
tp351
aI117
aS'https://capcomprotour.com/player/?player=14534&lang=en-us'
p352
aa(lp353
(NS'Hsien Chang'
tp354
aI118
aS'https://capcomprotour.com/player/?player=11679&lang=en-us'
p355
aa(lp356
(NS'Julio'
tp357
aI119
aS'https://capcomprotour.com/player/?player=11125&lang=en-us'
p358
aa(lp359
(S'pH'
S'Nando Tovar'
tp360
aI120
aS'https://capcomprotour.com/player/?player=17047&lang=en-us'
p361
aa(lp362
(S'Iplay'
S'Demulant'
tp363
aI121
aS'https://capcomprotour.com/player/?player=16653&lang=en-us'
p364
aa(lp365
(S'UM'
S'RMZ'
tp366
aI122
aS'https://capcomprotour.com/player/?player=12430&lang=en-us'
p367
aa(lp368
(S'AAG'
S'Baby Brasil'
tp369
aI123
aS'https://capcomprotour.com/player/?player=17050&lang=en-us'
p370
aa(lp371
(S'BAB'
S'Khangaroo'
tp372
aI124
aS'https://capcomprotour.com/player/?player=11988&lang=en-us'
p373
aa(lp374
(NS'Bashfest'
tp375
aI125
aS'https://capcomprotour.com/player/?player=2620&lang=en-us'
p376
aa(lp377
(NS'Dianminion'
tp378
aI126
aS'https://capcomprotour.com/player/?player=8700&lang=en-us'
p379
aa(lp380
(NS'DR Ray'
tp381
aI127
aS'https://capcomprotour.com/player/?player=4234&lang=en-us'
p382
aa(lp383
(S'ECO'
S'Ninja Shakz'
tp384
aI128
aS'https://capcomprotour.com/player/?player=16430&lang=en-us'
p385
aa(lp386
(NS'Flawless Deku'
tp387
aI129
aS'https://capcomprotour.com/player/?player=16421&lang=en-us'
p388
aa(lp389
(S'ISG'
S'EightGrade'
tp390
aI130
aS'https://capcomprotour.com/player/?player=17049&lang=en-us'
p391
aa(lp392
(NS'Kindo'
tp393
aI131
aS'https://capcomprotour.com/player/?player=9033&lang=en-us'
p394
aa(lp395
(NS'Magneto1080p'
tp396
aI132
aS'https://capcomprotour.com/player/?player=11680&lang=en-us'
p397
aa(lp398
(NS'Mizoteru'
tp399
aI133
aS'https://capcomprotour.com/player/?player=9031&lang=en-us'
p400
aa(lp401
(S'ON'
S'Gabo'
tp402
aI134
aS'https://capcomprotour.com/player/?player=18227&lang=en-us'
p403
aa(lp404
(S'PRK'
S'Huracan Azura'
tp405
aI135
aS'https://capcomprotour.com/player/?player=15291&lang=en-us'
p406
aa(lp407
(S'PX'
S'Doomed'
tp408
aI136
aS'https://capcomprotour.com/player/?player=18216&lang=en-us'
p409
aa(lp410
(S'SFT'
S'Alexandro'
tp411
aI137
aS'https://capcomprotour.com/player/?player=17060&lang=en-us'
p412
aa(lp413
(NS'Shimauta'
tp414
aI138
aS'https://capcomprotour.com/player/?player=5697&lang=en-us'
p415
aa(lp416
(S'SILG'
S'Stanick'
tp417
aI139
aS'https://capcomprotour.com/player/?player=14541&lang=en-us'
p418
aa(lp419
(S'smL'
S'Solidjin'
tp420
aI140
aS'https://capcomprotour.com/player/?player=14538&lang=en-us'
p421
aa(lp422
(S'SRKUW'
S'Fawwaz'
tp423
aI141
aS'https://capcomprotour.com/player/?player=1925&lang=en-us'
p424
aa(lp425
(NS'ThunderBear'
tp426
aI142
aS'https://capcomprotour.com/player/?player=16420&lang=en-us'
p427
aa(lp428
(S'VS'
S'Milligano'
tp429
aI143
aS'https://capcomprotour.com/player/?player=1036&lang=en-us'
p430
aa(lp431
(S'WTQ8'
S'Dudebag'
tp432
aI144
aS'https://capcomprotour.com/player/?player=16233&lang=en-us'
p433
aa(lp434
(S'WW'
S'CamizaKOF'
tp435
aI145
aS'https://capcomprotour.com/player/?player=17051&lang=en-us'
p436
aa(lp437
(S'YBK'
S'KichijoujiKen'
tp438
aI146
aS'https://capcomprotour.com/player/?player=16232&lang=en-us'
p439
aa(lp440
(NS'Yossan'
tp441
aI147
aS'https://capcomprotour.com/player/?player=17964&lang=en-us'
p442
aa(lp443
(S'BT.UM'
S'Gunslinga'
tp444
aI148
aS'https://capcomprotour.com/player/?player=16046&lang=en-us'
p445
aa(lp446
(S'GG'
S'Onisan'
tp447
aI149
aS'https://capcomprotour.com/player/?player=11716&lang=en-us'
p448
aa(lp449
(S'PxG'
S'Integra'
tp450
aI150
aS'https://capcomprotour.com/player/?player=1165&lang=en-us'
p451
aa(lp452
(S'RIG'
S'El Chakotay'
tp453
aI151
aS'https://capcomprotour.com/player/?player=15093&lang=en-us'
p454
aa(lp455
(S'/r/Kappa'
S'Ebi'
tp456
aI152
aS'https://capcomprotour.com/player/?player=12431&lang=en-us'
p457
aa(lp458
(NS'AbAb'
tp459
aI153
aS'https://capcomprotour.com/player/?player=14107&lang=en-us'
p460
aa(lp461
(NS'AHo'
tp462
aI154
aS'https://capcomprotour.com/player/?player=8420&lang=en-us'
p463
aa(lp464
(NS'Akira'
tp465
aI155
aS'https://capcomprotour.com/player/?player=16242&lang=en-us'
p466
aa(lp467
(NS'Anton'
tp468
aI156
aS'https://capcomprotour.com/player/?player=9056&lang=en-us'
p469
aa(lp470
(NS'Berzack'
tp471
aI157
aS'https://capcomprotour.com/player/?player=4592&lang=en-us'
p472
aa(lp473
(NS'Cameraman'
tp474
aI158
aS'https://capcomprotour.com/player/?player=8706&lang=en-us'
p475
aa(lp476
(S'CH'
S'Andy'
tp477
aI159
aS'https://capcomprotour.com/player/?player=18257&lang=en-us'
p478
aa(lp479
(NS'Chengfei'
tp480
aI160
aS'https://capcomprotour.com/player/?player=14106&lang=en-us'
p481
aa(lp482
(NS'Chiaki'
tp483
aI161
aS'https://capcomprotour.com/player/?player=9052&lang=en-us'
p484
aa(lp485
(NS'Cocaneta'
tp486
aI162
aS'https://capcomprotour.com/player/?player=4258&lang=en-us'
p487
aa(lp488
(NS'DB.KOOPA'
tp489
aI163
aS'https://capcomprotour.com/player/?player=4413&lang=en-us'
p490
aa(lp491
(S'DCB'
S'Darkchild'
tp492
aI164
aS'https://capcomprotour.com/player/?player=911&lang=en-us'
p493
aa(lp494
(S'DL'
S'FourWude'
tp495
aI165
aS'https://capcomprotour.com/player/?player=5717&lang=en-us'
p496
aa(lp497
(S'EMP'
S'KDZ'
tp498
aI166
aS'https://capcomprotour.com/player/?player=12003&lang=en-us'
p499
aa(lp500
(NS'EvilYoshi'
tp501
aI167
aS'https://capcomprotour.com/player/?player=16241&lang=en-us'
p502
aa(lp503
(S'FNO'
S'BobbyBlunts'
tp504
aI168
aS'https://capcomprotour.com/player/?player=18256&lang=en-us'
p505
aa(lp506
(S'FNO'
S'CrazySalvi'
tp507
aI169
aS'https://capcomprotour.com/player/?player=18230&lang=en-us'
p508
aa(lp509
(NS'Gorcrx'
tp510
aI170
aS'https://capcomprotour.com/player/?player=4247&lang=en-us'
p511
aa(lp512
(S'GxC'
S'Damascus'
tp513
aI171
aS'https://capcomprotour.com/player/?player=5249&lang=en-us'
p514
aa(lp515
(NS'Hunter'
tp516
aI172
aS'https://capcomprotour.com/player/?player=16243&lang=en-us'
p517
aa(lp518
(S'IPT'
S'Dru'
tp519
aI173
aS'https://capcomprotour.com/player/?player=15298&lang=en-us'
p520
aa(lp521
(NS'Keno (2015)'
tp522
aI174
aS'https://capcomprotour.com/player/?player=15295&lang=en-us'
p523
aa(lp524
(NS'Kreymore'
tp525
aI175
aS'https://capcomprotour.com/player/?player=15317&lang=en-us'
p526
aa(lp527
(S'LTWins'
S'Xitao'
tp528
aI176
aS'https://capcomprotour.com/player/?player=17086&lang=en-us'
p529
aa(lp530
(S'LU'
S'Alex Valle'
tp531
aI177
aS'https://capcomprotour.com/player/?player=5663&lang=en-us'
p532
aa(lp533
(NS'MDR'
tp534
aI178
aS'https://capcomprotour.com/player/?player=17974&lang=en-us'
p535
aa(lp536
(S'Melty'
S'Will2Pac'
tp537
aI179
aS'https://capcomprotour.com/player/?player=16488&lang=en-us'
p538
aa(lp539
(S'NGL'
S'Chris'
tp540
aI180
aS'https://capcomprotour.com/player/?player=921&lang=en-us'
p541
aa(lp542
(S'NGL'
S'Marq Teddy'
tp543
aI181
aS'https://capcomprotour.com/player/?player=1550&lang=en-us'
p544
aa(lp545
(NS'Onikiri Kai'
tp546
aI182
aS'https://capcomprotour.com/player/?player=14733&lang=en-us'
p547
aa(lp548
(NS'Pedram'
tp549
aI183
aS'https://capcomprotour.com/player/?player=16432&lang=en-us'
p550
aa(lp551
(NS'QuiQuiKOF'
tp552
aI184
aS'https://capcomprotour.com/player/?player=13167&lang=en-us'
p553
aa(lp554
(S'RBN'
S'BliRedd'
tp555
aI185
aS'https://capcomprotour.com/player/?player=16434&lang=en-us'
p556
aa(lp557
(S'RBN'
S'Duppsko'
tp558
aI186
aS'https://capcomprotour.com/player/?player=16459&lang=en-us'
p559
aa(lp560
(NS'Rosso'
tp561
aI187
aS'https://capcomprotour.com/player/?player=16433&lang=en-us'
p562
aa(lp563
(S'SFO'
S'OverMostHeads'
tp564
aI188
aS'https://capcomprotour.com/player/?player=1014&lang=en-us'
p565
aa(lp566
(S'SFT'
S'Dark817'
tp567
aI189
aS'https://capcomprotour.com/player/?player=5641&lang=en-us'
p568
aa(lp569
(S'SFT'
S'FABINHO'
tp570
aI190
aS'https://capcomprotour.com/player/?player=17084&lang=en-us'
p571
aa(lp572
(S'SFT'
S'Jacare'
tp573
aI191
aS'https://capcomprotour.com/player/?player=17085&lang=en-us'
p574
aa(lp575
(NS'Shamwow'
tp576
aI192
aS'https://capcomprotour.com/player/?player=8708&lang=en-us'
p577
aa(lp578
(NS'Sketch'
tp579
aI193
aS'https://capcomprotour.com/player/?player=14756&lang=en-us'
p580
aa(lp581
(NS'StarNab'
tp582
aI194
aS'https://capcomprotour.com/player/?player=1913&lang=en-us'
p583
aa(lp584
(S'STVG'
S'Flocker'
tp585
aI195
aS'https://capcomprotour.com/player/?player=15527&lang=en-us'
p586
aa(lp587
(NS'Susubabi'
tp588
aI196
aS'https://capcomprotour.com/player/?player=8710&lang=en-us'
p589
aa(lp590
(S'TCCR'
S'Ars'
tp591
aI197
aS'https://capcomprotour.com/player/?player=18258&lang=en-us'
p592
aa(lp593
(S'TCCR'
S'Nano'
tp594
aI198
aS'https://capcomprotour.com/player/?player=3671&lang=en-us'
p595
aa(lp596
(NS'Twiggy'
tp597
aI199
aS'https://capcomprotour.com/player/?player=16068&lang=en-us'
p598
aa(lp599
(S'507'
S'Kenji'
tp600
aI200
aS'https://capcomprotour.com/player/?player=18259&lang=en-us'
p601
aa(lp602
(NS'Badi Lootion'
tp603
aI201
aS'https://capcomprotour.com/player/?player=16462&lang=en-us'
p604
aa(lp605
(NS'Brillz'
tp606
aI202
aS'https://capcomprotour.com/player/?player=13017&lang=en-us'
p607
aa(lp608
(S'BTM'
S'Brian'
tp609
aI203
aS'https://capcomprotour.com/player/?player=14562&lang=en-us'
p610
aa(lp611
(S'CEO'
S'Jebailey'
tp612
aI204
aS'https://capcomprotour.com/player/?player=12024&lang=en-us'
p613
aa(lp614
(NS'CK-VNZ'
tp615
aI205
aS'https://capcomprotour.com/player/?player=15529&lang=en-us'
p616
aa(lp617
(S'CM'
S'Goj1980'
tp618
aI206
aS'https://capcomprotour.com/player/?player=18460&lang=en-us'
p619
aa(lp620
(S'Daddy'
S'Renegad'
tp621
aI207
aS'https://capcomprotour.com/player/?player=7421&lang=en-us'
p622
aa(lp623
(NS'Damdai'
tp624
aI208
aS'https://capcomprotour.com/player/?player=925&lang=en-us'
p625
aa(lp626
(NS'Dickson'
tp627
aI209
aS'https://capcomprotour.com/player/?player=1929&lang=en-us'
p628
aa(lp629
(S'DL'
S'Hamad'
tp630
aI210
aS'https://capcomprotour.com/player/?player=11709&lang=en-us'
p631
aa(lp632
(S'DouyuTV'
S'Abang'
tp633
aI211
aS'https://capcomprotour.com/player/?player=14124&lang=en-us'
p634
aa(lp635
(S'DouyuTV'
S'HurtchVR'
tp636
aI212
aS'https://capcomprotour.com/player/?player=14123&lang=en-us'
p637
aa(lp638
(NS'Drapoyo'
tp639
aI213
aS'https://capcomprotour.com/player/?player=8723&lang=en-us'
p640
aa(lp641
(S'EH'
S'Veloc1raptor'
tp642
aI214
aS'https://capcomprotour.com/player/?player=15139&lang=en-us'
p643
aa(lp644
(NS'Emersion'
tp645
aI215
aS'https://capcomprotour.com/player/?player=16724&lang=en-us'
p646
aa(lp647
(NS'emptysys'
tp648
aI216
aS'https://capcomprotour.com/player/?player=12449&lang=en-us'
p649
aa(lp650
(NS'Eunbeen'
tp651
aI217
aS'https://capcomprotour.com/player/?player=16460&lang=en-us'
p652
aa(lp653
(NS'FRS'
tp654
aI218
aS'https://capcomprotour.com/player/?player=11127&lang=en-us'
p655
aa(lp656
(NS'GZ-Ben'
tp657
aI219
aS'https://capcomprotour.com/player/?player=14125&lang=en-us'
p658
aa(lp659
(NS'Haizek'
tp660
aI220
aS'https://capcomprotour.com/player/?player=15349&lang=en-us'
p661
aa(lp662
(NS'Hikarin'
tp663
aI221
aS'https://capcomprotour.com/player/?player=9078&lang=en-us'
p664
aa(lp665
(NS'Ikatsui Yarou'
tp666
aI222
aS'https://capcomprotour.com/player/?player=15320&lang=en-us'
p667
aa(lp668
(S'IND'
S'King Funk'
tp669
aI223
aS'https://capcomprotour.com/player/?player=5210&lang=en-us'
p670
aa(lp671
(S'IPLAY.GG'
S'Halibel'
tp672
aI224
aS'https://capcomprotour.com/player/?player=12710&lang=en-us'
p673
aa(lp674
(S'IPLAY'
S'Sheva'
tp675
aI225
aS'https://capcomprotour.com/player/?player=12451&lang=en-us'
p676
aa(lp677
(S'IPT'
S'Garret'
tp678
aI226
aS'https://capcomprotour.com/player/?player=15321&lang=en-us'
p679
aa(lp680
(NS'James'
tp681
aI227
aS'https://capcomprotour.com/player/?player=15322&lang=en-us'
p682
aa(lp683
(NS'Javits'
tp684
aI228
aS'https://capcomprotour.com/player/?player=15318&lang=en-us'
p685
aa(lp686
(NS'Kenmike77'
tp687
aI229
aS'https://capcomprotour.com/player/?player=8717&lang=en-us'
p688
aa(lp689
(S'KIT'
S'Nice1'
tp690
aI230
aS'https://capcomprotour.com/player/?player=12023&lang=en-us'
p691
aa(lp692
(NS'LAUGH'
tp693
aI231
aS'https://capcomprotour.com/player/?player=4454&lang=en-us'
p694
aa(lp695
(S'MBA'
S'Fuzzy'
tp696
aI232
aS'https://capcomprotour.com/player/?player=1067&lang=en-us'
p697
aa(lp698
(NS'Meishan Quanwang'
tp699
aI233
aS'https://capcomprotour.com/player/?player=17087&lang=en-us'
p700
aa(lp701
(S'Melty'
S'Cuongster'
tp702
aI234
aS'https://capcomprotour.com/player/?player=16723&lang=en-us'
p703
aa(lp704
(NS'Meu'
tp705
aI235
aS'https://capcomprotour.com/player/?player=5715&lang=en-us'
p706
aa(lp707
(NS'Nekopunch'
tp708
aI236
aS'https://capcomprotour.com/player/?player=8719&lang=en-us'
p709
aa(lp710
(S'OG'
S'RLBS'
tp711
aI237
aS'https://capcomprotour.com/player/?player=18288&lang=en-us'
p712
aa(lp713
(S'pH'
S'Hoodaman'
tp714
aI238
aS'https://capcomprotour.com/player/?player=6096&lang=en-us'
p715
aa(lp716
(S'PRK'
S'Famous'
tp717
aI239
aS'https://capcomprotour.com/player/?player=15319&lang=en-us'
p718
aa(lp719
(S'Qanba'
S'Ahbao'
tp720
aI240
aS'https://capcomprotour.com/player/?player=15115&lang=en-us'
p721
aa(lp722
(NS'Ranmasama'
tp723
aI241
aS'https://capcomprotour.com/player/?player=4637&lang=en-us'
p724
aa(lp725
(NS'SaltyKid'
tp726
aI242
aS'https://capcomprotour.com/player/?player=13016&lang=en-us'
p727
aa(lp728
(NS'SASA'
tp729
aI243
aS'https://capcomprotour.com/player/?player=14758&lang=en-us'
p730
aa(lp731
(S'SFO'
S'Ghost'
tp732
aI244
aS'https://capcomprotour.com/player/?player=14563&lang=en-us'
p733
aa(lp734
(NS'Shaun'
tp735
aI245
aS'https://capcomprotour.com/player/?player=15528&lang=en-us'
p736
aa(lp737
(S'SiLG'
S'Battousai'
tp738
aI246
aS'https://capcomprotour.com/player/?player=14566&lang=en-us'
p739
aa(lp740
(NS'Stekoh'
tp741
aI247
aS'https://capcomprotour.com/player/?player=14564&lang=en-us'
p742
aa(lp743
(NS'Taayan'
tp744
aI248
aS'https://capcomprotour.com/player/?player=11422&lang=en-us'
p745
aa(lp746
(S'TCCR'
S'Kike'
tp747
aI249
aS'https://capcomprotour.com/player/?player=3722&lang=en-us'
p748
aa(lp749
(S'TFA'
S'German Luger'
tp750
aI250
aS'https://capcomprotour.com/player/?player=12021&lang=en-us'
p751
aa(lp752
(S'TheSteamCo'
S'Sanford Kelly'
tp753
aI251
aS'https://capcomprotour.com/player/?player=5017&lang=en-us'
p754
aa(lp755
(NS'Tian Sia Ren (???)'
tp756
aI252
aS'https://capcomprotour.com/player/?player=16694&lang=en-us'
p757
aa(lp758
(S'TsD'
S'BS Ioros'
tp759
aI253
aS'https://capcomprotour.com/player/?player=18260&lang=en-us'
p760
aa(lp761
(S'TSM'
S'Leffen'
tp762
aI254
aS'https://capcomprotour.com/player/?player=16461&lang=en-us'
p763
aa(lp764
(NS'Tuan Mario'
tp765
aI255
aS'https://capcomprotour.com/player/?player=15560&lang=en-us'
p766
aa(lp767
(NS'UltraBram'
tp768
aI256
aS'https://capcomprotour.com/player/?player=15530&lang=en-us'
p769
aa(lp770
(S'UM'
S'Isam'
tp771
aI257
aS'https://capcomprotour.com/player/?player=14561&lang=en-us'
p772
aa(lp773
(NS'Ush'
tp774
aI258
aS'https://capcomprotour.com/player/?player=8721&lang=en-us'
p775
aa(lp776
(S'VGP'
S'Chaotix'
tp777
aI259
aS'https://capcomprotour.com/player/?player=11724&lang=en-us'
p778
aa(lp779
(S'XFT'
S'Baoice'
tp780
aI260
aS'https://capcomprotour.com/player/?player=15117&lang=en-us'
p781
aa(lp782
(S'YOMI'
p783
S'Shin Phoenix'
p784
tp785
aI261
aS'https://capcomprotour.com/player/?player=15562&lang=en-us'
p786
aa.