(dp1
S'Emersion'
p2
S'Netherlands'
p3
sS'Pepeday'
p4
S'Japan'
p5
sS'Taayan'
p6
S'Japan'
p7
sS'Andreas'
p8
S'UK'
p9
sS'Baby Brasil'
p10
S'Brazil'
p11
sS'Hoodaman'
p12
S'USA'
p13
sS'Nano'
p14
S'Costa Rica'
p15
sS'Misse'
p16
S'Japan'
p17
sS'Gonzales'
p18
S'Japan'
p19
sS'Xiaohu'
p20
S'China'
p21
sS'Kindevu'
p22
S'Japan'
p23
sS'Solidjin'
p24
S''
sS'Infexious'
p25
S'UK'
p26
sS'King Funk'
p27
S'Denmark'
p28
sS'Snake Eyez'
p29
S'USA'
p30
sS'Santarouman'
p31
S'Japan'
p32
sS'Rosso'
p33
S'Norway'
p34
sS'Shimauta'
p35
S'Japan'
p36
sS'Tian Sia Ren (???)'
p37
S''
sS'KojiKOG'
p38
S'Japan'
p39
sS'Ibukiman'
p40
S'Brazil'
p41
sS'Isam'
p42
S'UK'
p43
sS'Damdai'
p44
S'USA'
p45
sS'Nice1'
p46
S'USA'
p47
sS'FABINHO'
p48
S'Brazil'
p49
sS'Khangaroo'
p50
S'USA'
p51
sS'Shin Phoenix'
p52
S'USA'
p53
sS'Cocaneta'
p54
S'Puerto Rico'
p55
sS'PR Balrog'
p56
S'USA'
p57
sS'Mago'
p58
S'Japan'
p59
sS'Tuan Mario'
p60
S'Vietnam'
p61
sS'RB'
p62
S'Taiwan'
p63
sS'Eita'
p64
S'Japan'
p65
sS'Poongko'
p66
S'Korea'
p67
sS'Dickson'
p68
S'USA'
p69
sS'Revenger32'
p70
S'Indonesia'
p71
sS'XiaoLong'
p72
S'China'
p73
sS'DR Ray'
p74
S'Dominican Republic'
p75
sS'Sheva'
p76
S'Germany'
p77
sS'Battousai'
p78
S'Malaysia'
p79
sS'Xitao'
p80
S'Brazil'
p81
sS'CK-VNZ'
p82
S'Vietnam'
p83
sS'OverMostHeads'
p84
S'UK'
p85
sS'CodyNp'
p86
S'Hong Kong'
p87
sS'AHo'
p88
S'Indonesia'
p89
sS'Air'
p90
S'Canada'
p91
sS'LPN'
p92
S'USA'
p93
sS'Nishikin'
p94
S'Japan'
p95
sS'NYChrisG'
p96
S'USA'
p97
sS'StarNab'
p98
S'France'
p99
sS'Abang'
p100
S'China'
p101
sS'ThunderBear'
p102
S'Norway'
p103
sS'Reiketsu'
p104
S'Japan'
p105
sS'Xiao Hai'
p106
S'China'
p107
sS'Ars'
p108
S'Costa Rica'
p109
sS'Huracan Azura'
p110
S'Puerto Rico'
p111
sS'Alex Valle'
p112
S'USA'
p113
sS'BS Ioros'
p114
S'Costa Rica'
p115
sS'Ryan Hart (Prodigal Son)'
p116
S'UK'
p117
sS'AbAb'
p118
S'China'
p119
sS'KichijoujiKen'
p120
S'Japan'
p121
sS'BliRedd'
p122
S'Norway'
p123
sS'Stanick'
p124
S'Malaysia'
p125
sS'Ninja Shakz'
p126
S'UK'
p127
sS'-6'
p128
S'Japan'
p129
sS'Problem X'
p130
S'UK'
p131
sS'Ranmasama'
p132
S'USA'
p133
sS'Tyrant'
p134
S'UK'
p135
sS'Luffy'
p136
S'France'
p137
sS'Daigo Umehara'
p138
S'Japan'
p139
sS'Filipinoman'
p140
S'USA'
p141
sS'Cuongster'
p142
S''
sS'Demulant'
p143
S'Germany'
p144
sS'Fawwaz'
p145
S''
sS'Garret'
p146
S'Phillipines'
p147
sS'Ghost'
p148
S'UK'
p149
sS'KDZ'
p150
S'USA'
p151
sS'GZ-Ben'
p152
S'China'
p153
sS'Dark Jiewa'
p154
S'China'
p155
sS'KOK'
p156
S'Japan'
p157
sS'Ebi'
p158
S'Japan'
p159
sS'Damascus'
p160
S'UK'
p161
sS'Leffen'
p162
S'Sweden'
p163
sS'Rokkun'
p164
S'Japan'
p165
sS'Marq Teddy'
p166
S'USA'
p167
sS'Stekoh'
p168
S'Australia'
p169
sS'Veloc1raptor'
p170
S'USA'
p171
sS'EvilYoshi'
p172
S'United Arab Emirates'
p173
sS'Haizek'
p174
S'Puerto Rico'
p175
sS'Onikiri Kai'
p176
S'Japan'
p177
sS'Bashfest'
p178
S'Sweden'
p179
sS'Pnoy'
p180
S'USA'
p181
sS'Meishan Quanwang'
p182
S''
sS'Doomed'
p183
S'Costa Rica'
p184
sS'Latif'
p185
S'Saudi Arabia'
p186
sS'HumanBomb'
p187
S'Hong Kong'
p188
sS'Meu'
p189
S'Japan'
p190
sS'Javits'
p191
S'USA'
p192
sS'ChuChu'
p193
S'Brazil'
p194
sS'Gunslinga'
p195
S'UK'
p196
sS'Alucard'
p197
S'USA'
p198
sS'Chris'
p199
S'USA'
p200
sS'GamerBee'
p201
S'Taiwan'
p202
sS'Brillz'
p203
S'Norway'
p204
sS'K-Brad'
p205
S'USA'
p206
sS'LAUGH'
p207
S'Korea'
p208
sS'emptysys'
p209
S'Germany'
p210
sS'Akira'
p211
S'Japan'
p212
sS'Hiro'
p213
S'USA'
p214
sS'Dru'
p215
S'Phillipines'
p216
sS'RMZ'
p217
S'UK'
p218
sS'Chiaki'
p219
S'Japan'
p220
sS'CrazySalvi'
p221
S'USA'
p222
sS'NuckleDu'
p223
S'USA'
p224
sS'Halibel'
p225
S'Germany'
p226
sS'Dieminion'
p227
S'USA'
p228
sS'Sketch'
p229
S'USA'
p230
sS'BobbyBlunts'
p231
S'USA'
p232
sS'God of Sky'
p233
S'China'
p234
sS'FourWude'
p235
S'USA'
p236
sS'Guiller BR'
p237
S'Brazil'
p238
sS'Shoryusengan'
p239
S'UK'
p240
sS'Nando Tovar'
p241
S'USA'
p242
sS'Darkchild'
p243
S'USA'
p244
sS'Xian'
p245
S'Singapore'
p246
sS'MOV'
p247
S'Japan'
p248
sS'Kreymore'
p249
S'USA'
p250
sS'Flocker'
p251
S'USA'
p252
sS'DB.KOOPA'
p253
S'Korea'
p254
sS'Dakou'
p255
S'China'
p256
sS'CamizaKOF'
p257
S'Brazil'
p258
sS'Jebailey'
p259
S'USA'
p260
sS'Hamad'
p261
S'USA'
p262
sS'Milligano'
p263
S'UK'
p264
sS'Momochi'
p265
S'Japan'
p266
sS'801 Jayce the Ace'
p267
S'USA'
p268
sS'Dunhill'
p269
S'Japan'
p270
sS'Caju'
p271
S'Brazil'
p272
sS'Chengfei'
p273
S'China'
p274
sS'Sako'
p275
S'Japan'
p276
sS'Ush'
p277
S'Indonesia'
p278
sS'Brian'
p279
S'UK'
p280
sS'Sanford Kelly'
p281
S'USA'
p282
sS'Itabashi Zangief (Itazan)'
p283
S'Japan'
p284
sS'RLBS'
p285
S'USA'
p286
sS'Packz'
p287
S'UK'
p288
sS'Phenom'
p289
S'Norway'
p290
sS'Kakaroto'
p291
S'Costa Rica'
p292
sS'Inco'
p293
S'Japan'
p294
sS'Justin Wong'
p295
S'USA'
p296
sS'EX Pugera'
p297
S'Japan'
p298
sS'Brenttiscool'
p299
S'USA'
p300
sS'QQEL'
p301
S'China'
p302
sS'Keoma'
p303
S'Brazil'
p304
sS'Yossan'
p305
S'Japan'
p306
sS'Jacare'
p307
S'Brazil'
p308
sS'Eunbeen'
p309
S'Norway'
p310
sS'Sabin'
p311
S'USA'
p312
sS'Magneto1080p'
p313
S'USA'
p314
sS'FRS'
p315
S'Korea'
p316
sS'SASA'
p317
S'Japan'
p318
sS'Dashio'
p319
S'Japan'
p320
sS'UltraBram'
p321
S'Indonesia'
p322
sS'MDR'
p323
S'Japan'
p324
sS'Fuzzy'
p325
S''
sS'QuiQuiKOF'
p326
S''
sS'Renegad'
p327
S'France'
p328
sS'Hsien Chang'
p329
S'USA'
p330
sS'Zaferino'
p331
S'USA'
p332
sS'Mizoteru'
p333
S'Japan'
p334
sS'Kenji'
p335
S'Costa Rica'
p336
sS'Gachikun (Gattikun)'
p337
S'Japan'
p338
sS'Badi Lootion'
p339
S'Norway'
p340
sS'Hurricane237'
p341
S'UK'
p342
sS'Kenmike77'
p343
S'Indonesia'
p344
sS'Dudebag'
p345
S'Kuwait'
p346
sS'AiAi'
p347
S'Japan'
p348
sS'R'
S'Japan'
p349
sS'Shamwow'
p350
S'Indonesia'
p351
sS'Alexandro'
p352
S'Brazil'
p353
sS'SaltyKid'
p354
S'Sweden'
p355
sS'Nekopunch'
p356
S'Indonesia'
p357
sS'Valmaster'
p358
S'France'
p359
sS'Integra'
p360
S'USA'
p361
sS'Onisan'
p362
S'USA'
p363
sS'Kim1234'
p364
S'Japan'
p365
sS'El Chakotay'
p366
S'USA'
p367
sS'Flawless Deku'
p368
S''
sS'Dark817'
p369
S'Brazil'
p370
sS'Dianminion'
p371
S'Indonesia'
p372
sS'StormKUBO'
p373
S'Japan'
p374
sS'Koji'
p375
S'Singapore'
p376
sS'Pro Fluke'
p377
S'UK'
p378
sS'Akimo'
p379
S'Japan'
p380
sS'Ahbao'
p381
S'China'
p382
sS'Kindo'
p383
S'Japan'
p384
sS'Susubabi'
p385
S'Indonesia'
p386
sS'Gabo'
p387
S'Costa Rica'
p388
sS'Andy'
p389
S''
sS'Veggey'
p390
S'Norway'
p391
sS'Doomsday 507'
p392
S'Costa Rica'
p393
sS'Afii'
p394
S'UK'
p395
sS'Tokido'
p396
S'Japan'
p397
sS'Fuudo'
p398
S'Japan'
p399
sS'Goj1980'
p400
S'Costa Rica'
p401
sS'Bebedero'
p402
S'Costa Rica'
p403
sS'Anton'
p404
S'Japan'
p405
sS'Tampa Bison'
p406
S'USA'
p407
sS'Haitani'
p408
S'Japan'
p409
sS'Ricki Ortiz'
p410
S'USA'
p411
sS'Pr3da'
p412
S'Kuwait'
p413
sS'Bonchan'
p414
S'Japan'
p415
sS'Wolfkrone'
p416
S'USA'
p417
sS'Kawaguchi'
p418
S'Japan'
p419
sS'EightGrade'
p420
S'Mexico'
p421
sS'Shinba'
p422
S'Japan'
p423
sS'Shaun'
p424
S'Malaysia'
p425
sS'SAUNIC'
p426
S'France'
p427
sS'801 Strider'
p428
S'USA'
p429
sS'Gagapa'
p430
S'France'
p431
sS'Baoice'
p432
S'Hong Kong'
p433
sS'Hunter'
p434
S'Kuwait'
p435
sS'Kazunoko'
p436
S'Japan'
p437
sS'Famous'
p438
S'Puerto Rico'
p439
sS'German Luger'
p440
S'USA'
p441
sS'Gackt'
p442
S'Singapore'
p443
sS'James'
p444
S''
sS'Smug'
p445
S'USA'
p446
sS'ImStillDaDaddy'
p447
S'UK'
p448
sS'MBR'
p449
S'Netherlands'
p450
sS'Shine'
p451
S'USA'
p452
sS'Duppsko'
p453
S'Norway'
p454
sS'Chuan'
p455
S'Malaysia'
p456
sS'Berzack'
p457
S''
sS'Will2Pac'
p458
S'UK'
p459
sS'Gannoon'
p460
S'Kuwait'
p461
sS'Joel'
p462
S'USA'
p463
sS'Cameraman'
p464
S'Singapore'
p465
sS'Kike'
p466
S'Panama'
p467
sS'HurtchVR'
p468
S'China'
p469
sS'Chaotix'
p470
S'USA'
p471
sS'Pedram'
p472
S'Norway'
p473
sS'Ikatsui Yarou'
p474
S''
sS'Hikarin'
p475
S'Japan'
p476
sS'Keno (2015)'
p477
S'Phillipines'
p478
sS'Julio'
p479
S'USA'
p480
sS'F-Word'
p481
S'UK'
p482
sS'Tonpy'
p483
S'Japan'
p484
sS'Riceata'
p485
S'USA'
p486
sS'KitasenjuDJ'
p487
S'Japan'
p488
sS'Shiro (Shirou)'
p489
S'Japan'
p490
sS'Nemo'
p491
S'Japan'
p492
sS'Native Impact'
p493
S'USA'
p494
sS'XR PROMETO'
p495
S'Brazil'
p496
sS'Twiggy'
p497
S''
sS'Nox2'
p498
S'Kuwait'
p499
sS'Leslie'
p500
S'Singapore'
p501
sS'Infiltration'
p502
S'Korea'
p503
sS'Gorcrx'
p504
S'Puerto Rico'
p505
sS'JehoSan'
p506
S'France'
p507
sS'Drapoyo'
p508
S'Indonesia'
p509
s.