(lp1
(S'Ranking'
S'Cannes Winter Clash'
p2
tp3
a(S'Ranking'
S'Abuget Cup'
p4
tp5
a(S'Ranking'
S'Nine States Tournament'
p6
tp7
a(S'Premier'
S'Final Round 18'
p8
tp9
a(S'Premier'
S'NorCal Regionals'
p10
tp11
a(S'Premier'
S'Hypespotting 4'
p12
tp13
a(S'Ranking'
S'Northwest Majors 7'
p14
tp15
a(S'Ranking'
S'Double Elimination'
p16
tp17
a(S'Ranking'
p18
S'KVO'
p19
tp20
a(g18
S'Texas Showdown'
p21
tp22
a(S'Ranking'
S'Combo Breaker'
p23
tp24
a(S'Premier'
S'Stunfest'
p25
tp26
a(S'Ranking'
S'FFM-Rumble #8'
p27
tp28
a(S'Ranking'
S'Dreamhack Summer'
p29
tp30
a(S'Premier'
S'South East Asia Major'
p31
tp32
a(S'Premier'
S'CEO'
p33
tp34
a(S'Premier'
S'Evolution Championship Series'
p35
tp36
a(S'Ranking'
S'Capcom Pro Tour Asia Shanghai'
p37
tp38
a(S'Ranking'
S'VSFighting'
p39
tp40
a(S'Ranking'
S'FV Cup'
p41
tp42
a(S'Ranking'
S'Taiwan Fighting Game Major'
p43
tp44
a(S'Ranking'
S'Summer Jam 9'
p45
tp46
a(S'Ranking'
S'CPTA Hong Kong'
p47
tp48
a(S'Ranking'
S'Manila Cup'
p49
tp50
a(S'Ranking'
S'First Attack'
p51
tp52
a(S'Ranking'
S'The Fall Classic'
p53
tp54
a(S'Ranking'
S'Saigon Cup'
p55
tp56
a(S'Premier'
S'Mad Catz Tokyo Game Show'
p57
tp58
a(S'Premier'
S'KO Fighting Game Festival'
p59
tp60
a(S'Ranking'
S'EGX'
p61
tp62
a(S'Ranking'
S'The Call of Ragnarok'
p63
tp64
a(S'Ranking'
S'Red Fight District IV'
p65
tp66
a(S'Ranking'
S'Ze Fighting Game Championship'
p67
tp68
a(S'Premier'
S'SoCal Regionals'
p69
tp70
a(S'Premier'
S'Capcom Pro Tour Brazil'
p71
tp72
a(S'Premier'
S'Ultra Hyakkishu Cup'
p73
tp74
a(S'Premier'
S'Milan Games Week'
p75
tp76
a(S'Ranking'
S'Defend the North'
p77
tp78
a(S'Ranking'
S'True Challengers Costa Rica'
p79
tp80
a(S'Premier'
p81
S'Canada Cup'
p82
tp83
a.